(dp1
S'output'
p2
S"<type 'exceptions.SyntaxError'> EOL while scanning string literal (default/index.html, line 100)"
p3
sS'layer'
p4
S'C:\\Users\\Aster\\Desktop\\web2py\\applications\\SCADA_con_arduino\\views\\default/index.html'
p5
sS'code'
p6
S'response.write(\'\\n\', escape=False)\nresponse.write(\'<!--[if HTML5]><![endif]-->\\n<!DOCTYPE html>\\n<!-- paulirish.com/2008/conditional-stylesheets-vs-css-hacks-answer-neither/ -->\\n<!--[if lt IE 7]><html class="ie ie6 ie-lte9 ie-lte8 ie-lte7 no-js" lang="\', escape=False)\nresponse.write(T.accepted_language or \'en\')\nresponse.write(\'"> <![endif]-->\\n<!--[if IE 7]><html class="ie ie7 ie-lte9 ie-lte8 ie-lte7 no-js" lang="\', escape=False)\nresponse.write(T.accepted_language or \'en\')\nresponse.write(\'"> <![endif]-->\\n<!--[if IE 8]><html class="ie ie8 ie-lte9 ie-lte8 no-js" lang="\', escape=False)\nresponse.write(T.accepted_language or \'en\')\nresponse.write(\'"> <![endif]-->\\n<!--[if IE 9]><html class="ie9 ie-lte9 no-js" lang="\', escape=False)\nresponse.write(T.accepted_language or \'en\')\nresponse.write(\'"> <![endif]-->\\n<!--[if (gt IE 9)|!(IE)]><!--> <html class="no-js" lang="\', escape=False)\nresponse.write(T.accepted_language or \'en\')\nresponse.write(\'"> <!--<![endif]-->\\n<head>\\n<title>\', escape=False)\nresponse.write(response.title or request.application)\nresponse.write(\'</title>\\n  <!--[if !HTML5]>\\n      <meta http-equiv="X-UA-Compatible" content="IE=edge\', escape=False)\nresponse.write(not request.is_local and \',chrome=1\' or \'\')\nresponse.write(\'">\\n  <![endif]-->\\n  <!-- www.phpied.com/conditional-comments-block-downloads/ -->\\n  <!-- Always force latest IE rendering engine\\n       (even in intranet) & Chrome Frame\\n       Remove this if you use the .htaccess -->\\n\\t   \\n  <meta charset="utf-8" />\\n\\n  <!-- http://dev.w3.org/html5/markup/meta.name.html -->\\n  <meta name="application-name" content="\', escape=False)\nresponse.write(request.application)\nresponse.write(\'" />\\n\\n  <!-- Speaking of Google, don\\\'t forget to set your site up:\\n       http://google.com/webmasters -->\\n  <meta name="google-site-verification" content="" />\\n\\n  <!--  Mobile Viewport Fix\\n        j.mp/mobileviewport & davidbcalhoun.com/2010/viewport-metatag\\n        device-width: Occupy full width of the screen in its current orientation\\n        initial-scale = 1.0 retains dimensions instead of zooming out if page height > device height\\n        user-scalable = yes allows the user to zoom in -->\\n  <meta name="viewport" content="width=device-width, initial-scale=1.0" />\\n\\n  <link rel="shortcut icon" href="\', escape=False)\nresponse.write(URL(\'static\',\'images/favicon.ico\'))\nresponse.write(\'" type="image/x-icon">\\n  <link rel="apple-touch-icon" href="\', escape=False)\nresponse.write(URL(\'static\',\'images/favicon.png\'))\nresponse.write(\'">\\n\\n  <!-- All JavaScript at the bottom, except for Modernizr which enables\\n       HTML5 elements & feature detects -->\\n  <script src="\', escape=False)\nresponse.write(URL(\'static\',\'js/modernizr.custom.js\'))\nresponse.write(\'"></script>\\n\\n  <!-- include stylesheets -->\\n  \', escape=False)\nresponse.files.insert(0,URL(\'static\',\'css/web2py.css\'))\nresponse.files.insert(1,URL(\'static\',\'css/bootstrap.min.css\'))\nresponse.files.insert(2,URL(\'static\',\'css/bootstrap-responsive.min.css\'))\nresponse.files.insert(3,URL(\'static\',\'css/web2py_bootstrap.css\'))\nresponse.write(\'\\n\\n  \', escape=False)\nresponse.write(\'<script type="text/javascript"><!--\\n    // These variables are used by the web2py_ajax_init function in web2py_ajax.js (which is loaded below).\\n    var w2p_ajax_confirm_message = "\', escape=False)\nresponse.write(T(\'Are you sure you want to delete this object?\'))\nresponse.write(\'";\\n    var w2p_ajax_disable_with_message = "\', escape=False)\nresponse.write(T(\'Working...\'))\nresponse.write(\'";\\n    var w2p_ajax_date_format = "\', escape=False)\nresponse.write(T(\'%Y-%m-%d\'))\nresponse.write(\'";\\n    var w2p_ajax_datetime_format = "\', escape=False)\nresponse.write(T(\'%Y-%m-%d %H:%M:%S\'))\nresponse.write(\'";\\n    var ajax_error_500 = \\\'\', escape=False)\nresponse.write(T.M(\'An error occured, please [[reload %s]] the page\') % URL(args=request.args, vars=request.get_vars))\nresponse.write("\'\\n    //--></script>\\n", escape=False)\nresponse.files.insert(0,URL(\'static\',\'js/jquery.js\'))\nresponse.files.insert(1,URL(\'static\',\'css/calendar.css\'))\nresponse.files.insert(2,URL(\'static\',\'js/calendar.js\'))\nresponse.files.insert(3,URL(\'static\',\'js/web2py.js\'))\nresponse.include_meta()\nresponse.include_files()\nresponse.write(\'\\n\', escape=False)\nresponse.write(\'\\n\\n  \', escape=False)\n# using sidebars need to know what sidebar you want to use\nleft_sidebar_enabled = globals().get(\'left_sidebar_enabled\',False)\nright_sidebar_enabled = globals().get(\'right_sidebar_enabled\',False)\nmiddle_columns = {0:\'span12\',1:\'span9\',2:\'span6\'}[\n(left_sidebar_enabled and 1 or 0)+(right_sidebar_enabled and 1 or 0)]\nresponse.write(\'\\n\\n  <!-- uncomment here to load jquery-ui\\n       <link rel="stylesheet" href="http://ajax.googleapis.com/ajax/libs/jqueryui/1.10.3/themes/ui-lightness/jquery-ui.css" type="text/css" media="all" />\\n       <script src="http://ajax.googleapis.com/ajax/libs/jqueryui/1.10.3/jquery-ui.min.js" type="text/javascript"></script>\\n       uncomment to load jquery-ui //-->\\n  <noscript><link href="\', escape=False)\nresponse.write(URL(\'static\', \'css/web2py_bootstrap_nojs.css\'))\nresponse.write(\'" rel="stylesheet" type="text/css" /></noscript>\\n  \', escape=False)\nresponse.write(\'\\n</head>\\n\\n<body>\\n  <!-- Navbar ================================================== -->\\n  <div class="navbar navbar-inverse">\\n    <div class="flash">\', escape=False)\nresponse.write(response.flash or \'\')\nresponse.write(\'</div>\\n    <div class="navbar-inner">\\n      <div class="container">\\n        \', escape=False)\nis_mobile=request.user_agent().is_mobile\nresponse.write(\'\\n        <!-- the next tag is necessary for bootstrap menus, do not remove -->\\n        <button type="button" class="btn btn-navbar" data-toggle="collapse" data-target=".nav-collapse" style="\', escape=False)\nresponse.write(\'display:none;\' if not is_mobile else \'\')\nresponse.write(\'">\\n          <span class="icon-bar"></span>\\n          <span class="icon-bar"></span>\\n          <span class="icon-bar"></span>\\n        </button>\\n        \', escape=False)\nresponse.write(response.logo or \'\')\nresponse.write(\'\\n        <ul id="navbar" class="nav pull-right">\', escape=False)\nresponse.write(\'auth\' in globals() and auth.navbar(mode="dropdown") or \'\')\nresponse.write(\'</ul>\\n        <div class="\', escape=False)\nresponse.write(\'nav-collapse\' if is_mobile else \'nav\')\nresponse.write(\'">\\n          \', escape=False)\nif response.menu:\n    response.write(\'\\n          \', escape=False)\n    response.write(MENU(response.menu, _class=\'mobile-menu nav\' if is_mobile else \'nav\',mobile=is_mobile,li_class=\'dropdown\',ul_class=\'dropdown-menu\'))\n    response.write(\'\\n          \', escape=False)\n    pass\nresponse.write(\'\\n        </div><!--/.nav-collapse -->\\n      </div>\\n    </div>\\n  </div><!--/top navbar -->\\n\\n  <div class="container">\\n    <!-- Masthead ================================================== -->\\n    <header class="mastheader row" id="header">\\n      \', escape=False)\nif response.title:\n    response.write(\'\\n        <div class="span12">\\n            <div class="page-header">\\n                <h1>\\n                    \', escape=False)\n    response.write(response.title)\n    response.write(\'\\n                    <small>\', escape=False)\n    response.write(response.subtitle or \'\')\n    response.write(\'</small>\\n                </h1>\\n            </div>\\n        </div>\\n\\t\', escape=False)\n    pass\nresponse.write(\'\\n    </header>\\n\\n    <section id="main" class="main row">\\n        \', escape=False)\nif left_sidebar_enabled:\n    response.write(\'\\n        <div class="span3 left-sidebar">\\n            \', escape=False)\n    response.write(\'\\n            <h3>Left Sidebar</h3>\\n            <p></p>\\n            \', escape=False)\n    response.write(\'\\n        </div>\\n        \', escape=False)\n    pass\nresponse.write(\'\\n\\n        <div class="\', escape=False)\nresponse.write(middle_columns)\nresponse.write(\'">\\n            \', escape=False)\nresponse.write(\'\\n            \', escape=False)\nresponse.write(\'\\n\\n<h1>SCADA DEP\\xc3\\x93SITO</h1>\\n\\n        <h4>Electrov\\xc3\\xa1lvula de vaciado</h4>\\n          <input id="estado_valvula1" type="text" >\\n              <button id="encender">On/Off</button>\\n          <span id="resultado">resultado</span>\\n          \\n        <h4>Electrov\\xc3\\xa1lvula de llenado</h4>\\n          <input id="estado_valvula2" type="text" >\\n              <button id="encender2">On/Off</button>\\n          <span id="resultado2">resultado</span>\\n          <br>\\n          <div id="fecha">fechdfgsda</div>\\n          <div id="hora">horasddssd</div>\\n\\n    \\n<?xml version="1.0" encoding="UTF-8" standalone="no"?>\\n<svg\\n   xmlns:dc="http://purl.org/dc/elements/1.1/"\\n   xmlns:cc="http://creativecommons.org/ns#"\\n   xmlns:rdf="http://www.w3.org/1999/02/22-rdf-syntax-ns#"\\n   xmlns:svg="http://www.w3.org/2000/svg"\\n   xmlns="http://www.w3.org/2000/svg"\\n   xmlns:sodipodi="http://sodipodi.sourceforge.net/DTD/sodipodi-0.dtd"\\n   xmlns:inkscape="http://www.inkscape.org/namespaces/inkscape"\\n   sodipodi:docname="eso.svg"\\n   inkscape:version="0.48.5 r10040"\\n   version="1.1"\\n   id="svg3619"\\n   height="297mm"\\n   width="210mm">\\n  <sodipodi:namedview\\n     id="base"\\n     pagecolor="#ffffff"\\n     bordercolor="#666666"\\n     borderopacity="1.0"\\n     inkscape:pageopacity="0.0"\\n     inkscape:pageshadow="2"\\n     inkscape:zoom="0.24748737"\\n     inkscape:cx="1339.2041"\\n     inkscape:cy="483.53902"\\n     inkscape:document-units="px"\\n     inkscape:current-layer="layer2"\\n     showgrid="false"\\n     inkscape:window-width="1366"\\n     inkscape:window-height="705"\\n     inkscape:window-x="-8"\\n     inkscape:window-y="-8"\\n     inkscape:window-maximized="1"\\n     inkscape:snap-center="true" />\\n  <defs\\n     id="defs3621">\\n    <filter\\n       inkscape:label="Blur content"\\n       inkscape:menu="Blurs"\\n       inkscape:menu-tooltip="Blur the contents of objects, preserving the outline"\\n       height="1.5"\\n       width="1"\\n       x="0"\\n       y="-0.25"\\n       color-interpolation-filters="sRGB"\\n       id="filter3925">\\n      <feColorMatrix\\n         type="saturate"\\n         values="1"\\n         result="result91"\\n         id="feColorMatrix3927" />\\n      <feComposite\\n         result="result15"\\n         operator="arithmetic"\\n         k2="0.4"\\n         k1="0.3"\\n         k3="0.3"\\n         in2="result91"\\n         id="feComposite3929" />\\n      <feGaussianBlur\\n         in="result15"\\n         result="result8"\\n         stdDeviation="5"\\n         id="feGaussianBlur3931" />\\n      <feComposite\\n         operator="in"\\n         result="result13"\\n         in2="result8"\\n         id="feComposite3933" />\\n      <feComposite\\n         k3="0.3"\\n         k1="0.3"\\n         k2="0.4"\\n         in2="result13"\\n         operator="arithmetic"\\n         in="result15"\\n         result="result6"\\n         id="feComposite3935" />\\n      <feFlood\\n         flood-color="rgb(128,172,0)"\\n         flood-opacity="1"\\n         in="result6"\\n         result="result10"\\n         id="feFlood3937" />\\n      <feBlend\\n         result="result12"\\n         in2="result10"\\n         in="result6"\\n         mode="darken"\\n         id="feBlend3939" />\\n      <feBlend\\n         in2="result6"\\n         result="result14"\\n         mode="screen"\\n         id="feBlend3941" />\\n      <feComposite\\n         in="result14"\\n         in2="SourceGraphic"\\n         operator="in"\\n         result="fbSourceGraphic"\\n         id="feComposite3943" />\\n      <feColorMatrix\\n         id="feColorMatrix4929"\\n         values="0 0 0 -1 0 0 0 0 -1 0 0 0 0 -1 0 0 0 0 1 0"\\n         in="fbSourceGraphic"\\n         result="fbSourceGraphicAlpha" />\\n      <feGaussianBlur\\n         in="fbSourceGraphic"\\n         result="result6"\\n         stdDeviation="5"\\n         id="feGaussianBlur4931" />\\n      <feComposite\\n         operator="atop"\\n         in="fbSourceGraphic"\\n         result="result8"\\n         id="feComposite4933"\\n         in2="result6" />\\n      <feComposite\\n         in="result8"\\n         operator="over"\\n         result="result9"\\n         id="feComposite4935"\\n         in2="fbSourceGraphicAlpha" />\\n      <feColorMatrix\\n         result="result10"\\n         values="1 0 0 0 0 0 1 0 0 0 0 0 1 0 0 0 0 0 1 0 "\\n         id="feColorMatrix4937" />\\n      <feBlend\\n         result="fbSourceGraphic"\\n         mode="normal"\\n         in="result10"\\n         id="feBlend4939"\\n         in2="result6" />\\n      <feColorMatrix\\n         id="feColorMatrix4953"\\n         values="0 0 0 -1 0 0 0 0 -1 0 0 0 0 -1 0 0 0 0 1 0"\\n         in="fbSourceGraphic"\\n         result="fbSourceGraphicAlpha" />\\n      <feColorMatrix\\n         in="fbSourceGraphic"\\n         result="result7"\\n         values="1 0 0 0 0 0 1 0 0 0 0 0 1 0 0 0 0 0 1 0 "\\n         id="feColorMatrix4955" />\\n      <feGaussianBlur\\n         stdDeviation="5"\\n         result="result6"\\n         id="feGaussianBlur4957" />\\n      <feComposite\\n         result="result91"\\n         in="result6"\\n         operator="atop"\\n         in2="result7"\\n         id="feComposite4959" />\\n      <feComposite\\n         operator="in"\\n         in2="result91"\\n         id="feComposite4961" />\\n    </filter>\\n    <filter\\n       inkscape:label="Soft colors"\\n       inkscape:menu="Color"\\n       inkscape:menu-tooltip="Adds a colorizable edges glow inside objects and pictures"\\n       height="1"\\n       width="1"\\n       x="0"\\n       y="0"\\n       color-interpolation-filters="sRGB"\\n       id="filter3925-1">\\n      <feColorMatrix\\n         type="saturate"\\n         values="1"\\n         result="result91"\\n         id="feColorMatrix3927-7" />\\n      <feComposite\\n         result="result15"\\n         operator="arithmetic"\\n         k2="0.4"\\n         k1="0.3"\\n         k3="0.3"\\n         in2="result91"\\n         id="feComposite3929-4"\\n         k4="0" />\\n      <feGaussianBlur\\n         in="result15"\\n         result="result8"\\n         stdDeviation="5"\\n         id="feGaussianBlur3931-0" />\\n      <feComposite\\n         operator="in"\\n         result="result13"\\n         in2="result8"\\n         id="feComposite3933-9" />\\n      <feComposite\\n         k3="0.3"\\n         k1="0.3"\\n         k2="0.4"\\n         in2="result13"\\n         operator="arithmetic"\\n         in="result15"\\n         result="result6"\\n         id="feComposite3935-4"\\n         k4="0" />\\n      <feFlood\\n         flood-color="rgb(128,172,0)"\\n         flood-opacity="1"\\n         in="result6"\\n         result="result10"\\n         id="feFlood3937-8" />\\n      <feBlend\\n         result="result12"\\n         in2="result10"\\n         in="result6"\\n         mode="darken"\\n         id="feBlend3939-8" />\\n      <feBlend\\n         in2="result6"\\n         result="result14"\\n         mode="screen"\\n         id="feBlend3941-2" />\\n      <feComposite\\n         in="result14"\\n         in2="SourceGraphic"\\n         operator="in"\\n         result="result2"\\n         id="feComposite3943-4" />\\n    </filter>\\n    <filter\\n       id="filter3542"\\n       color-interpolation-filters="sRGB"\\n       inkscape:menu-tooltip="Blend image or object with a flood color and set lightness and contrast"\\n       inkscape:menu="Color"\\n       height="1"\\n       width="1"\\n       y="0"\\n       x="0"\\n       inkscape:label="Colorize">\\n      <feGaussianBlur\\n         id="feGaussianBlur3544"\\n         result="result0"\\n         in="SourceAlpha"\\n         stdDeviation="2.3" />\\n      <feMorphology\\n         id="feMorphology3546"\\n         result="result1"\\n         radius="6.6"\\n         in="SourceAlpha" />\\n      <feGaussianBlur\\n         id="feGaussianBlur3548"\\n         in="result1"\\n         stdDeviation="8.9" />\\n      <feColorMatrix\\n         id="feColorMatrix3550"\\n         result="result91"\\n         values="1 0 0 0 0 0 1 0 0 0 0 0 1 0 0 0 0 0 0.3 0" />\\n      <feComposite\\n         id="feComposite3552"\\n         in2="result91"\\n         result="result2"\\n         operator="out"\\n         in="result0" />\\n      <feGaussianBlur\\n         id="feGaussianBlur3554"\\n         result="result4"\\n         stdDeviation="1.7" />\\n      <feDiffuseLighting\\n         id="feDiffuseLighting3556"\\n         surfaceScale="10">\\n        <feDistantLight\\n           id="feDistantLight3558"\\n           elevation="45"\\n           azimuth="225" />\\n      </feDiffuseLighting>\\n      <feBlend\\n         id="feBlend3560"\\n         mode="multiply"\\n         in2="SourceGraphic" />\\n      <feComposite\\n         id="feComposite3562"\\n         result="result3"\\n         operator="in"\\n         in2="SourceAlpha" />\\n      <feSpecularLighting\\n         id="feSpecularLighting3564"\\n         specularExponent="17.9"\\n         surfaceScale="5"\\n         in="result4">\\n        <feDistantLight\\n           id="feDistantLight3566"\\n           elevation="45"\\n           azimuth="225" />\\n      </feSpecularLighting>\\n      <feComposite\\n         result="fbSourceGraphic"\\n         id="feComposite3568"\\n         operator="atop"\\n         in2="result3" />\\n      <feColorMatrix\\n         id="feColorMatrix3570"\\n         values="0 0 0 -1 0 0 0 0 -1 0 0 0 0 -1 0 0 0 0 1 0"\\n         in="fbSourceGraphic"\\n         result="fbSourceGraphicAlpha" />\\n      <feColorMatrix\\n         in="fbSourceGraphic"\\n         result="fbSourceGraphic"\\n         values="180"\\n         type="hueRotate"\\n         id="feColorMatrix3572" />\\n      <feColorMatrix\\n         result="result3"\\n         values="-1 0 0 0 1 0 -1 0 0 1 0 0 -1 0 1 0 0 0 1 0 "\\n         in="fbSourceGraphic"\\n         id="feColorMatrix3574" />\\n      <feBlend\\n         result="result2"\\n         in="fbSourceGraphic"\\n         mode="lighten"\\n         in2="result3"\\n         id="feBlend3576" />\\n      <feBlend\\n         in="result2"\\n         result="result1"\\n         mode="multiply"\\n         in2="result2"\\n         id="feBlend3578" />\\n      <feComposite\\n         result="fbSourceGraphic"\\n         operator="in"\\n         in2="fbSourceGraphic"\\n         id="feComposite3580" />\\n      <feColorMatrix\\n         id="feColorMatrix3582"\\n         values="0 0 0 -1 0 0 0 0 -1 0 0 0 0 -1 0 0 0 0 1 0"\\n         in="fbSourceGraphic"\\n         result="fbSourceGraphicAlpha" />\\n      <feFlood\\n         in="fbSourceGraphic"\\n         flood-color="rgb(128,128,128)"\\n         flood-opacity="0"\\n         result="result1"\\n         id="feFlood3584" />\\n      <feBlend\\n         result="result2"\\n         mode="normal"\\n         in2="fbSourceGraphic"\\n         id="feBlend3586" />\\n      <feComposite\\n         result="result92"\\n         operator="arithmetic"\\n         k2="1"\\n         in2="fbSourceGraphic"\\n         id="feComposite3588" />\\n      <feComposite\\n         result="fbSourceGraphic"\\n         operator="in"\\n         in2="fbSourceGraphic"\\n         id="feComposite3590" />\\n      <feColorMatrix\\n         id="feColorMatrix3592"\\n         values="0 0 0 -1 0 0 0 0 -1 0 0 0 0 -1 0 0 0 0 1 0"\\n         in="fbSourceGraphic"\\n         result="fbSourceGraphicAlpha" />\\n      <feColorMatrix\\n         result="result2"\\n         type="saturate"\\n         in="fbSourceGraphic"\\n         values="1"\\n         id="feColorMatrix3594" />\\n      <feFlood\\n         result="result1"\\n         flood-opacity="1"\\n         flood-color="rgb(254,102,0)"\\n         id="feFlood3596" />\\n      <feBlend\\n         result="result3"\\n         in="result1"\\n         mode="multiply"\\n         in2="result2"\\n         id="feBlend3598" />\\n      <feComposite\\n         result="result4"\\n         operator="in"\\n         in2="fbSourceGraphic"\\n         id="feComposite3600"\\n         k2="1" />\\n    </filter>\\n    <filter\\n       height="1"\\n       width="1"\\n       y="0"\\n       x="0"\\n       id="filter3952"\\n       color-interpolation-filters="sRGB"\\n       inkscape:menu-tooltip="Same as Bubbly Bumps but with transparent highlights"\\n       inkscape:menu="Image effects, transparent"\\n       inkscape:label="Bubbly Bumps alpha">\\n      <feGaussianBlur\\n         id="feGaussianBlur3954"\\n         in="SourceGraphic"\\n         stdDeviation="3"\\n         result="result6" />\\n      <feColorMatrix\\n         id="feColorMatrix3956"\\n         in="SourceGraphic"\\n         result="result7"\\n         values="1 0 0 0 0 0 1 0 0 0 0 0 1 0 0 0 0 0 1 0 " />\\n      <feComposite\\n         result="fbSourceGraphic"\\n         id="feComposite3958"\\n         in2="result7"\\n         in="result6"\\n         operator="in" />\\n      <feColorMatrix\\n         id="feColorMatrix4971"\\n         values="0 0 0 -1 0 0 0 0 -1 0 0 0 0 -1 0 0 0 0 1 0"\\n         in="fbSourceGraphic"\\n         result="fbSourceGraphicAlpha" />\\n      <feConvolveMatrix\\n         result="fbSourceGraphic"\\n         targetY="1"\\n         targetX="1"\\n         in="fbSourceGraphic"\\n         divisor="1"\\n         kernelMatrix="0 -0.15 0 -0.15 1.6 -0.15 0 -0.15 0"\\n         order="3 3"\\n         id="feConvolveMatrix4973" />\\n      <feColorMatrix\\n         id="feColorMatrix4975"\\n         values="0 0 0 -1 0 0 0 0 -1 0 0 0 0 -1 0 0 0 0 1 0"\\n         in="fbSourceGraphic"\\n         result="fbSourceGraphicAlpha" />\\n      <feGaussianBlur\\n         stdDeviation="0.5"\\n         in="fbSourceGraphic"\\n         result="result0"\\n         id="feGaussianBlur4977" />\\n      <feTurbulence\\n         type="fractalNoise"\\n         result="result1"\\n         numOctaves="10"\\n         seed="300"\\n         baseFrequency="0.2"\\n         id="feTurbulence4979" />\\n      <feGaussianBlur\\n         result="result8"\\n         stdDeviation="4"\\n         id="feGaussianBlur4981" />\\n      <feDisplacementMap\\n         xChannelSelector="R"\\n         in="fbSourceGraphic"\\n         scale="5"\\n         result="result7"\\n         in2="result8"\\n         id="feDisplacementMap4983" />\\n      <feComposite\\n         in="result7"\\n         operator="in"\\n         result="result2"\\n         in2="result1"\\n         id="feComposite4985" />\\n      <feComposite\\n         result="result9"\\n         operator="arithmetic"\\n         in="result0"\\n         k3="3"\\n         in2="result2"\\n         id="feComposite4987" />\\n      <feBlend\\n         mode="multiply"\\n         result="fbSourceGraphic"\\n         in2="result2"\\n         id="feBlend4989" />\\n      <feColorMatrix\\n         result="fbSourceGraphicAlpha"\\n         in="fbSourceGraphic"\\n         values="1 0 0 -1 0 1 0 1 -1 0 1 0 0 -1 0 -1.8 -0.5 0 5.7 -3.5 "\\n         id="feColorMatrix4991" />\\n      <feGaussianBlur\\n         result="result0"\\n         in="fbSourceGraphicAlpha"\\n         stdDeviation="0.5"\\n         id="feGaussianBlur4993" />\\n      <feSpecularLighting\\n         specularExponent="5"\\n         surfaceScale="-5"\\n         result="result6"\\n         id="feSpecularLighting4995">\\n        <feDistantLight\\n           elevation="25"\\n           azimuth="225"\\n           id="feDistantLight4997" />\\n      </feSpecularLighting>\\n      <feComposite\\n         operator="in"\\n         result="result2"\\n         in="fbSourceGraphic"\\n         in2="result6"\\n         id="feComposite4999" />\\n      <feComposite\\n         k3="1"\\n         k2="1"\\n         operator="arithmetic"\\n         result="result4"\\n         in="result2"\\n         in2="result2"\\n         id="feComposite5001" />\\n    </filter>\\n    <filter\\n       id="filter5033"\\n       color-interpolation-filters="sRGB"\\n       inkscape:menu-tooltip="Same as Bubbly Bumps but with transparent highlights"\\n       inkscape:menu="Image effects, transparent"\\n       inkscape:label="Bubbly Bumps alpha">\\n      <feGaussianBlur\\n         id="feGaussianBlur5035"\\n         stdDeviation="0.5"\\n         in="SourceGraphic"\\n         result="result0" />\\n      <feTurbulence\\n         id="feTurbulence5037"\\n         type="fractalNoise"\\n         result="result1"\\n         numOctaves="10"\\n         seed="300"\\n         baseFrequency="0.2" />\\n      <feGaussianBlur\\n         id="feGaussianBlur5039"\\n         result="result8"\\n         stdDeviation="4" />\\n      <feDisplacementMap\\n         id="feDisplacementMap5041"\\n         xChannelSelector="R"\\n         in="SourceGraphic"\\n         scale="5"\\n         in2="result8"\\n         result="result7" />\\n      <feComposite\\n         id="feComposite5043"\\n         in="result7"\\n         in2="result1"\\n         operator="in"\\n         result="result2" />\\n      <feComposite\\n         id="feComposite5045"\\n         operator="arithmetic"\\n         in="result0"\\n         in2="result2"\\n         k3="3" />\\n      <feBlend\\n         id="feBlend5047"\\n         in2="result2"\\n         mode="multiply"\\n         result="fbSourceGraphic" />\\n      <feColorMatrix\\n         id="feColorMatrix5049"\\n         result="fbSourceGraphicAlpha"\\n         in="fbSourceGraphic"\\n         values="1 0 0 -1 0 1 0 1 -1 0 1 0 0 -1 0 -1.8 -0.5 0 5.7 -3.5 " />\\n      <feGaussianBlur\\n         id="feGaussianBlur5051"\\n         result="result0"\\n         in="fbSourceGraphicAlpha"\\n         stdDeviation="0.5" />\\n      <feSpecularLighting\\n         id="feSpecularLighting5053"\\n         specularExponent="5"\\n         surfaceScale="-5"\\n         result="result6">\\n        <feDistantLight\\n           id="feDistantLight5055"\\n           elevation="25"\\n           azimuth="225" />\\n      </feSpecularLighting>\\n      <feComposite\\n         id="feComposite5057"\\n         operator="in"\\n         result="result2"\\n         in="SourceGraphic"\\n         in2="result6" />\\n      <feComposite\\n         id="feComposite5059"\\n         in2="result2"\\n         k3="1"\\n         k2="1"\\n         operator="arithmetic"\\n         result="result4"\\n         in="result2" />\\n    </filter>\\n    <filter\\n       inkscape:label="Bubbly Bumps alpha"\\n       inkscape:menu="Image effects, transparent"\\n       inkscape:menu-tooltip="Same as Bubbly Bumps but with transparent highlights"\\n       color-interpolation-filters="sRGB"\\n       id="filter6069">\\n      <feGaussianBlur\\n         result="result0"\\n         in="SourceGraphic"\\n         stdDeviation="0.5"\\n         id="feGaussianBlur6071" />\\n      <feTurbulence\\n         baseFrequency="0.2"\\n         seed="300"\\n         numOctaves="10"\\n         result="result1"\\n         type="fractalNoise"\\n         id="feTurbulence6073" />\\n      <feGaussianBlur\\n         stdDeviation="4"\\n         result="result8"\\n         id="feGaussianBlur6075" />\\n      <feDisplacementMap\\n         result="result7"\\n         in2="result8"\\n         scale="5"\\n         in="SourceGraphic"\\n         xChannelSelector="R"\\n         id="feDisplacementMap6077" />\\n      <feComposite\\n         result="result2"\\n         operator="in"\\n         in2="result1"\\n         in="result7"\\n         id="feComposite6079" />\\n      <feComposite\\n         k3="3"\\n         in2="result2"\\n         in="result0"\\n         operator="arithmetic"\\n         id="feComposite6081" />\\n      <feBlend\\n         result="fbSourceGraphic"\\n         mode="multiply"\\n         in2="result2"\\n         id="feBlend6083" />\\n      <feColorMatrix\\n         values="1 0 0 -1 0 1 0 1 -1 0 1 0 0 -1 0 -1.8 -0.5 0 5.7 -3.5 "\\n         in="fbSourceGraphic"\\n         result="fbSourceGraphicAlpha"\\n         id="feColorMatrix6085" />\\n      <feGaussianBlur\\n         stdDeviation="0.5"\\n         in="fbSourceGraphicAlpha"\\n         result="result0"\\n         id="feGaussianBlur6087" />\\n      <feSpecularLighting\\n         result="result6"\\n         surfaceScale="-5"\\n         specularExponent="5"\\n         id="feSpecularLighting6089">\\n        <feDistantLight\\n           azimuth="225"\\n           elevation="25"\\n           id="feDistantLight6091" />\\n      </feSpecularLighting>\\n      <feComposite\\n         in2="result6"\\n         in="SourceGraphic"\\n         result="result2"\\n         operator="in"\\n         id="feComposite6093" />\\n      <feComposite\\n         in="result2"\\n         result="result4"\\n         operator="arithmetic"\\n         k2="1"\\n         k3="1"\\n         in2="result2"\\n         id="feComposite6095" />\\n    </filter>\\n    <filter\\n       inkscape:label="Bubbly Bumps alpha"\\n       inkscape:menu="Image effects, transparent"\\n       inkscape:menu-tooltip="Same as Bubbly Bumps but with transparent highlights"\\n       color-interpolation-filters="sRGB"\\n       id="filter6069-8">\\n      <feGaussianBlur\\n         result="result0"\\n         in="SourceGraphic"\\n         stdDeviation="0.5"\\n         id="feGaussianBlur6071-2" />\\n      <feTurbulence\\n         baseFrequency="0.2"\\n         seed="300"\\n         numOctaves="10"\\n         result="result1"\\n         type="fractalNoise"\\n         id="feTurbulence6073-9" />\\n      <feGaussianBlur\\n         stdDeviation="4"\\n         result="result8"\\n         id="feGaussianBlur6075-1" />\\n      <feDisplacementMap\\n         yChannelSelector="A"\\n         result="result7"\\n         in2="result8"\\n         scale="5"\\n         in="SourceGraphic"\\n         xChannelSelector="R"\\n         id="feDisplacementMap6077-3" />\\n      <feComposite\\n         result="result2"\\n         operator="in"\\n         in2="result1"\\n         in="result7"\\n         id="feComposite6079-5" />\\n      <feComposite\\n         k4="0"\\n         k2="0"\\n         k1="0"\\n         k3="3"\\n         in2="result2"\\n         in="result0"\\n         operator="arithmetic"\\n         id="feComposite6081-9" />\\n      <feBlend\\n         result="fbSourceGraphic"\\n         mode="multiply"\\n         in2="result2"\\n         id="feBlend6083-8" />\\n      <feColorMatrix\\n         values="1 0 0 -1 0 1 0 1 -1 0 1 0 0 -1 0 -1.8 -0.5 0 5.7 -3.5 "\\n         in="fbSourceGraphic"\\n         result="fbSourceGraphicAlpha"\\n         id="feColorMatrix6085-4" />\\n      <feGaussianBlur\\n         stdDeviation="0.5"\\n         in="fbSourceGraphicAlpha"\\n         result="result0"\\n         id="feGaussianBlur6087-0" />\\n      <feSpecularLighting\\n         result="result6"\\n         surfaceScale="-5"\\n         specularExponent="5"\\n         id="feSpecularLighting6089-7">\\n        <feDistantLight\\n           azimuth="225"\\n           elevation="25"\\n           id="feDistantLight6091-6" />\\n      </feSpecularLighting>\\n      <feComposite\\n         in2="result6"\\n         in="SourceGraphic"\\n         result="result2"\\n         operator="in"\\n         id="feComposite6093-3" />\\n      <feComposite\\n         k4="0"\\n         k1="0"\\n         in="result2"\\n         result="result4"\\n         operator="arithmetic"\\n         k2="1"\\n         k3="1"\\n         in2="result2"\\n         id="feComposite6095-6" />\\n    </filter>\\n    <filter\\n       inkscape:label="Glow"\\n       inkscape:menu="Shadows and Glows"\\n       inkscape:menu-tooltip="Glow of object\\\'s own color at the edges"\\n       color-interpolation-filters="sRGB"\\n       id="filter3229">\\n      <feGaussianBlur\\n         stdDeviation="5"\\n         result="result91"\\n         id="feGaussianBlur3231" />\\n      <feComposite\\n         in="SourceGraphic"\\n         operator="over"\\n         in2="result91"\\n         id="feComposite3233" />\\n    </filter>\\n    <filter\\n       inkscape:label="Matte bevel"\\n       inkscape:menu="Bevels"\\n       inkscape:menu-tooltip="Soft, pastel-colored, blurry bevel"\\n       x="-0.25"\\n       y="-0.25"\\n       width="1.5"\\n       height="1.5"\\n       color-interpolation-filters="sRGB"\\n       id="filter3204">\\n      <feGaussianBlur\\n         stdDeviation="1"\\n         result="result6"\\n         id="feGaussianBlur3206" />\\n      <feComposite\\n         operator="in"\\n         in="result6"\\n         in2="result6"\\n         result="result7"\\n         id="feComposite3208" />\\n      <feGaussianBlur\\n         stdDeviation="8"\\n         result="result3"\\n         in="result7"\\n         id="feGaussianBlur3210" />\\n      <feComposite\\n         in2="result7"\\n         operator="over"\\n         result="result91"\\n         id="feComposite3212" />\\n      <feComposite\\n         operator="in"\\n         in="result3"\\n         result="result5"\\n         in2="result91"\\n         id="feComposite3214" />\\n      <feColorMatrix\\n         values="0 0 0 -1 0 0 0 0 -1 0 0 0 0 -1 0 0 0 0 1 0 "\\n         result="result4"\\n         id="feColorMatrix3216" />\\n      <feSpecularLighting\\n         surfaceScale="3"\\n         specularConstant="2"\\n         specularExponent="45"\\n         in="result4"\\n         result="result11"\\n         id="feSpecularLighting3218">\\n        <fePointLight\\n           x="-5000"\\n           y="-10000"\\n           z="20000"\\n           id="fePointLight3220" />\\n      </feSpecularLighting>\\n      <feComposite\\n         operator="arithmetic"\\n         k1="1"\\n         in2="result4"\\n         result="result10"\\n         id="feComposite3222" />\\n      <feComposite\\n         operator="arithmetic"\\n         k2="0.5"\\n         k3="1"\\n         in="result5"\\n         result="result8"\\n         in2="result10"\\n         id="feComposite3224" />\\n      <feComposite\\n         result="result9"\\n         in2="result8"\\n         id="feComposite3226" />\\n      <feBlend\\n         mode="normal"\\n         in2="result9"\\n         id="feBlend3228" />\\n    </filter>\\n    <filter\\n       inkscape:label="Darken edges"\\n       inkscape:menu="Shadows and Glows"\\n       inkscape:menu-tooltip="Darken the edges with an inner blur"\\n       color-interpolation-filters="sRGB"\\n       id="filter3364">\\n      <feGaussianBlur\\n         result="result6"\\n         stdDeviation="1.5"\\n         id="feGaussianBlur3366" />\\n      <feComposite\\n         in2="result6"\\n         operator="atop"\\n         in="SourceGraphic"\\n         result="result8"\\n         id="feComposite3368" />\\n      <feComposite\\n         in="result8"\\n         in2="SourceAlpha"\\n         operator="atop"\\n         result="fbSourceGraphic"\\n         id="feComposite3370" />\\n      <feColorMatrix\\n         result="fbSourceGraphicAlpha"\\n         in="fbSourceGraphic"\\n         values="0 0 0 -1 0 0 0 0 -1 0 0 0 0 -1 0 0 0 0 1 0"\\n         id="feColorMatrix3601" />\\n      <feGaussianBlur\\n         id="feGaussianBlur3603"\\n         result="result6"\\n         stdDeviation="1.5"\\n         in="fbSourceGraphic" />\\n      <feComposite\\n         id="feComposite3605"\\n         in2="result6"\\n         operator="atop"\\n         in="fbSourceGraphic"\\n         result="result8" />\\n      <feComposite\\n         id="feComposite3607"\\n         in2="fbSourceGraphicAlpha"\\n         in="result8"\\n         operator="atop"\\n         result="result9" />\\n    </filter>\\n    <filter\\n       inkscape:label="Glow"\\n       inkscape:menu="Shadows and Glows"\\n       inkscape:menu-tooltip="Glow of object\\\'s own color at the edges"\\n       color-interpolation-filters="sRGB"\\n       id="filter3229-1">\\n      <feGaussianBlur\\n         stdDeviation="5"\\n         result="result91"\\n         id="feGaussianBlur3231-7" />\\n      <feComposite\\n         in="SourceGraphic"\\n         operator="over"\\n         in2="result91"\\n         id="feComposite3233-4" />\\n    </filter>\\n    <filter\\n       inkscape:label="Darken edges"\\n       inkscape:menu="Shadows and Glows"\\n       inkscape:menu-tooltip="Darken the edges with an inner blur"\\n       color-interpolation-filters="sRGB"\\n       id="filter3201">\\n      <feGaussianBlur\\n         result="result6"\\n         stdDeviation="1.5"\\n         id="feGaussianBlur3203" />\\n      <feComposite\\n         in2="result6"\\n         operator="atop"\\n         in="SourceGraphic"\\n         result="result8"\\n         id="feComposite3205" />\\n      <feComposite\\n         in="result8"\\n         in2="SourceAlpha"\\n         operator="atop"\\n         result="fbSourceGraphic"\\n         id="feComposite3207" />\\n      <feColorMatrix\\n         result="fbSourceGraphicAlpha"\\n         in="fbSourceGraphic"\\n         values="0 0 0 -1 0 0 0 0 -1 0 0 0 0 -1 0 0 0 0 1 0"\\n         id="feColorMatrix3260" />\\n      <feGaussianBlur\\n         id="feGaussianBlur3262"\\n         result="result6"\\n         stdDeviation="1.5"\\n         in="fbSourceGraphic" />\\n      <feComposite\\n         id="feComposite3264"\\n         in2="result6"\\n         operator="atop"\\n         in="fbSourceGraphic"\\n         result="result8" />\\n      <feComposite\\n         id="feComposite3266"\\n         in2="fbSourceGraphicAlpha"\\n         in="result8"\\n         operator="atop"\\n         result="fbSourceGraphic" />\\n      <feColorMatrix\\n         result="fbSourceGraphicAlpha"\\n         in="fbSourceGraphic"\\n         values="0 0 0 -1 0 0 0 0 -1 0 0 0 0 -1 0 0 0 0 1 0"\\n         id="feColorMatrix3268" />\\n      <feGaussianBlur\\n         id="feGaussianBlur3270"\\n         result="result6"\\n         stdDeviation="1.5"\\n         in="fbSourceGraphic" />\\n      <feComposite\\n         id="feComposite3272"\\n         in2="result6"\\n         operator="atop"\\n         in="fbSourceGraphic"\\n         result="result8" />\\n      <feComposite\\n         id="feComposite3274"\\n         in2="fbSourceGraphicAlpha"\\n         in="result8"\\n         operator="atop"\\n         result="result9" />\\n    </filter>\\n    <filter\\n       inkscape:label="Darken edges"\\n       inkscape:menu="Shadows and Glows"\\n       inkscape:menu-tooltip="Darken the edges with an inner blur"\\n       color-interpolation-filters="sRGB"\\n       id="filter3213">\\n      <feGaussianBlur\\n         result="result6"\\n         stdDeviation="1.5"\\n         id="feGaussianBlur3215" />\\n      <feComposite\\n         in2="result6"\\n         operator="atop"\\n         in="SourceGraphic"\\n         result="result8"\\n         id="feComposite3217" />\\n      <feComposite\\n         in="result8"\\n         in2="SourceAlpha"\\n         operator="atop"\\n         result="fbSourceGraphic"\\n         id="feComposite3219" />\\n      <feColorMatrix\\n         result="fbSourceGraphicAlpha"\\n         in="fbSourceGraphic"\\n         values="0 0 0 -1 0 0 0 0 -1 0 0 0 0 -1 0 0 0 0 1 0"\\n         id="feColorMatrix3221" />\\n      <feGaussianBlur\\n         id="feGaussianBlur3223"\\n         result="result6"\\n         stdDeviation="1.5"\\n         in="fbSourceGraphic" />\\n      <feComposite\\n         id="feComposite3225"\\n         in2="result6"\\n         operator="atop"\\n         in="fbSourceGraphic"\\n         result="result8" />\\n      <feComposite\\n         id="feComposite3227"\\n         in2="fbSourceGraphicAlpha"\\n         in="result8"\\n         operator="atop"\\n         result="fbSourceGraphic" />\\n      <feColorMatrix\\n         result="fbSourceGraphicAlpha"\\n         in="fbSourceGraphic"\\n         values="0 0 0 -1 0 0 0 0 -1 0 0 0 0 -1 0 0 0 0 1 0"\\n         id="feColorMatrix3244" />\\n      <feGaussianBlur\\n         id="feGaussianBlur3246"\\n         result="result6"\\n         stdDeviation="1.5"\\n         in="fbSourceGraphic" />\\n      <feComposite\\n         id="feComposite3248"\\n         in2="result6"\\n         operator="atop"\\n         in="fbSourceGraphic"\\n         result="result8" />\\n      <feComposite\\n         id="feComposite3250"\\n         in2="fbSourceGraphicAlpha"\\n         in="result8"\\n         operator="atop"\\n         result="fbSourceGraphic" />\\n      <feColorMatrix\\n         result="fbSourceGraphicAlpha"\\n         in="fbSourceGraphic"\\n         values="0 0 0 -1 0 0 0 0 -1 0 0 0 0 -1 0 0 0 0 1 0"\\n         id="feColorMatrix3252" />\\n      <feGaussianBlur\\n         id="feGaussianBlur3254"\\n         result="result6"\\n         stdDeviation="1.5"\\n         in="fbSourceGraphic" />\\n      <feComposite\\n         id="feComposite3256"\\n         in2="result6"\\n         operator="atop"\\n         in="fbSourceGraphic"\\n         result="result8" />\\n      <feComposite\\n         id="feComposite3258"\\n         in2="fbSourceGraphicAlpha"\\n         in="result8"\\n         operator="atop"\\n         result="result9" />\\n    </filter>\\n    <filter\\n       inkscape:label="Matte bevel"\\n       inkscape:menu="Bevels"\\n       inkscape:menu-tooltip="Soft, pastel-colored, blurry bevel"\\n       x="-0.25"\\n       y="-0.25"\\n       width="1.5"\\n       height="1.5"\\n       color-interpolation-filters="sRGB"\\n       id="filter3276">\\n      <feGaussianBlur\\n         stdDeviation="1"\\n         result="result6"\\n         id="feGaussianBlur3278" />\\n      <feComposite\\n         operator="in"\\n         in="result6"\\n         in2="result6"\\n         result="result7"\\n         id="feComposite3280" />\\n      <feGaussianBlur\\n         stdDeviation="8"\\n         result="result3"\\n         in="result7"\\n         id="feGaussianBlur3282" />\\n      <feComposite\\n         in2="result7"\\n         operator="over"\\n         result="result91"\\n         id="feComposite3284" />\\n      <feComposite\\n         operator="in"\\n         in="result3"\\n         result="result5"\\n         in2="result91"\\n         id="feComposite3286" />\\n      <feColorMatrix\\n         values="0 0 0 -1 0 0 0 0 -1 0 0 0 0 -1 0 0 0 0 1 0 "\\n         result="result4"\\n         id="feColorMatrix3288" />\\n      <feSpecularLighting\\n         surfaceScale="3"\\n         specularConstant="2"\\n         specularExponent="45"\\n         in="result4"\\n         result="result11"\\n         id="feSpecularLighting3290">\\n        <fePointLight\\n           x="-5000"\\n           y="-10000"\\n           z="20000"\\n           id="fePointLight3292" />\\n      </feSpecularLighting>\\n      <feComposite\\n         operator="arithmetic"\\n         k1="1"\\n         in2="result4"\\n         result="result10"\\n         id="feComposite3294" />\\n      <feComposite\\n         operator="arithmetic"\\n         k2="0.5"\\n         k3="1"\\n         in="result5"\\n         result="result8"\\n         in2="result10"\\n         id="feComposite3296" />\\n      <feComposite\\n         result="result9"\\n         in2="result8"\\n         id="feComposite3298" />\\n      <feBlend\\n         mode="normal"\\n         in2="result9"\\n         id="feBlend3300" />\\n    </filter>\\n    <filter\\n       inkscape:label="Darken edges"\\n       inkscape:menu="Shadows and Glows"\\n       inkscape:menu-tooltip="Darken the edges with an inner blur"\\n       color-interpolation-filters="sRGB"\\n       id="filter3221">\\n      <feGaussianBlur\\n         result="result6"\\n         stdDeviation="1.5"\\n         id="feGaussianBlur3224" />\\n      <feComposite\\n         in2="result6"\\n         operator="atop"\\n         in="SourceGraphic"\\n         result="result8"\\n         id="feComposite3228" />\\n      <feComposite\\n         in="result8"\\n         in2="SourceAlpha"\\n         operator="atop"\\n         result="fbSourceGraphic"\\n         id="feComposite3230" />\\n      <feColorMatrix\\n         result="fbSourceGraphicAlpha"\\n         in="fbSourceGraphic"\\n         values="0 0 0 -1 0 0 0 0 -1 0 0 0 0 -1 0 0 0 0 1 0"\\n         id="feColorMatrix3232" />\\n      <feGaussianBlur\\n         id="feGaussianBlur3234"\\n         result="result6"\\n         stdDeviation="1.5"\\n         in="fbSourceGraphic" />\\n      <feComposite\\n         id="feComposite3236"\\n         in2="result6"\\n         operator="atop"\\n         in="fbSourceGraphic"\\n         result="result8" />\\n      <feComposite\\n         id="feComposite3238"\\n         in2="fbSourceGraphicAlpha"\\n         in="result8"\\n         operator="atop"\\n         result="fbSourceGraphic" />\\n      <feColorMatrix\\n         result="fbSourceGraphicAlpha"\\n         in="fbSourceGraphic"\\n         values="0 0 0 -1 0 0 0 0 -1 0 0 0 0 -1 0 0 0 0 1 0"\\n         id="feColorMatrix3240" />\\n      <feGaussianBlur\\n         id="feGaussianBlur3242"\\n         result="result6"\\n         stdDeviation="1.5"\\n         in="fbSourceGraphic" />\\n      <feComposite\\n         id="feComposite3244"\\n         in2="result6"\\n         operator="atop"\\n         in="fbSourceGraphic"\\n         result="result8" />\\n      <feComposite\\n         id="feComposite3246"\\n         in2="fbSourceGraphicAlpha"\\n         in="result8"\\n         operator="atop"\\n         result="result9" />\\n    </filter>\\n  </defs>\\n  <metadata\\n     id="metadata3624">\\n    <rdf:RDF>\\n      <cc:Work\\n         rdf:about="">\\n        <dc:format>image/svg+xml</dc:format>\\n        <dc:type\\n           rdf:resource="http://purl.org/dc/dcmitype/StillImage" />\\n        <dc:title />\\n      </cc:Work>\\n    </rdf:RDF>\\n  </metadata>\\n  <g\\n     inkscape:label="Capa 1"\\n     inkscape:groupmode="layer"\\n     id="layer1"\\n     style="display:inline">\\n    <path\\n       style="fill:#f8c806;fill-opacity:1;fill-rule:evenodd;stroke:#000000;stroke-width:0.38267714;stroke-linecap:square;stroke-linejoin:miter;stroke-miterlimit:4;stroke-opacity:1;stroke-dasharray:none"\\n       d=""\\n       id="path3917"\\n       inkscape:connector-curvature="0" />\\n  </g>\\n  <g\\n     inkscape:label="liquid0"\\n     id="layer2"\\n     inkscape:groupmode="layer">\\n    <path\\n       style="fill:#0066ff;fill-opacity:1;fill-rule:evenodd;stroke:#000000;stroke-width:0.19328116;stroke-linecap:square;stroke-linejoin:miter;stroke-miterlimit:4;stroke-opacity:1;stroke-dasharray:none"\\n       d=""\\n       id="path3561"\\n       inkscape:connector-curvature="0" />\\n    <path\\n       sodipodi:type="arc"\\n       id="path3662"\\n       style="fill:#000000;stroke:none;display:inline"\\n       sodipodi:cx="379.81735"\\n       sodipodi:cy="82.615738"\\n       sodipodi:rx="1.5"\\n       sodipodi:ry="1.5"\\n       d="m 381.31735,82.615738 a 1.5,1.5 0 1 1 -3,0 1.5,1.5 0 1 1 3,0 z"\\n       transform="translate(5.7142857,130)" />\\n    <path\\n       style="fill:#ffffff;stroke:#000000;stroke-width:1px;stroke-linecap:butt;stroke-linejoin:miter;stroke-opacity:1;display:inline"\\n       d="m 318.86158,556.0676 0,-38.38579 c -41.51677,-2.7392 -74.5314,-2.65841 -111.11678,-28.57143 l 0,-314.88044 c 9.70704,-0.87181 -1.01536,-10.79267 67.97608,-11.42857 l 0.71429,-16.8557 49.08957,0"\\n       id="path3664"\\n       inkscape:connector-curvature="0"\\n       sodipodi:nodetypes="ccccccc" />\\n    <path\\n       style="fill:#ffffff;stroke:#000000;stroke-width:1px;stroke-linecap:butt;stroke-linejoin:miter;stroke-opacity:1;display:inline"\\n       d="m 356.02319,555.99458 0,-38.38579 c 41.51677,-2.7392 74.5314,-2.65841 111.11679,-28.57143 l 0,-314.88044 c -9.70704,-0.87181 1.01536,-10.79268 -67.97609,-11.42857 l -0.71429,-16.8557 -49.62528,0.17857"\\n       id="path3664-8"\\n       inkscape:connector-curvature="0"\\n       sodipodi:nodetypes="ccccccc" />\\n    <path\\n       style="fill:none;stroke:#000000;stroke-width:2.05479097px;stroke-linecap:butt;stroke-linejoin:miter;stroke-opacity:1;display:inline"\\n       d="m 203.23994,489.49683 -41.2981,92.58642 0,22.1686 -5.36876,0 0,-22.82061 46.04741,-100.57364 3.51032,0 0.41297,8.47622 z"\\n       id="path3011"\\n       inkscape:connector-curvature="0" />\\n    <path\\n       style="fill:none;stroke:#000000;stroke-width:2.05479097px;stroke-linecap:butt;stroke-linejoin:miter;stroke-opacity:1;display:inline"\\n       d="m 214.12577,494.39572 -39.54598,87.51492 0,22.16859 -5.36876,0 0,-22.8206 40.93702,-88.70171 3.97772,1.8388 0,0 z"\\n       id="path3011-7"\\n       inkscape:connector-curvature="0"\\n       sodipodi:nodetypes="ccccccccc" />\\n    <path\\n       style="fill:none;stroke:#000000;stroke-width:2.05479097px;stroke-linecap:butt;stroke-linejoin:miter;stroke-opacity:1;display:inline"\\n       d="m 161.19791,604.16222 8.46865,-0.46104 -7.59257,-11.98718 6.7165,-10.37355 -0.29202,-14.29241 10.25314,-8.55731 -0.29052,-13.08343 11.20896,-8.67301 -0.43805,-15.21451 10.80481,-9.10566 -0.34213,-13.52852 9.68683,-5.83539 -3.50426,-3.22734"\\n       id="path3063"\\n       inkscape:connector-curvature="0"\\n       sodipodi:nodetypes="ccccccccccccc" />\\n    <path\\n       style="fill:none;stroke:#000000;stroke-width:2.05479097px;stroke-linecap:butt;stroke-linejoin:miter;stroke-opacity:1;display:inline"\\n       d="m 199.72962,495.52799 c 0,0 0,0 0,0 z"\\n       id="path3065"\\n       inkscape:connector-curvature="0" />\\n    <path\\n       style="fill:none;stroke:#000000;stroke-width:2.05479097px;stroke-linecap:butt;stroke-linejoin:miter;stroke-opacity:1;display:inline"\\n       d="m 471.62147,489.27701 41.2981,92.58642 0,22.1686 5.36876,0 0,-22.82061 -46.04741,-100.57364 -3.51032,0 -0.41297,8.47622 z"\\n       id="path3011-2"\\n       inkscape:connector-curvature="0" />\\n    <path\\n       style="fill:none;stroke:#000000;stroke-width:2.05479097px;stroke-linecap:butt;stroke-linejoin:miter;stroke-opacity:1;display:inline"\\n       d="m 460.73564,494.1759 39.54598,87.51492 0,22.16859 5.36876,0 0,-22.8206 -40.93702,-88.70171 -3.97772,1.8388 0,0 z"\\n       id="path3011-7-4"\\n       inkscape:connector-curvature="0"\\n       sodipodi:nodetypes="ccccccccc" />\\n    <path\\n       style="fill:none;stroke:#000000;stroke-width:2.05479097px;stroke-linecap:butt;stroke-linejoin:miter;stroke-opacity:1;display:inline"\\n       d="m 513.6635,603.9424 -8.46865,-0.46104 7.59257,-11.98718 -6.7165,-10.37355 0.29202,-14.29241 -10.25314,-8.55731 0.29052,-13.08343 -11.20896,-8.67301 0.43805,-15.21451 -10.80481,-9.10566 0.34213,-13.52852 -9.68683,-5.83539 3.50426,-3.22734"\\n       id="path3063-5"\\n       inkscape:connector-curvature="0"\\n       sodipodi:nodetypes="ccccccccccccc" />\\n    <path\\n       style="fill:none;stroke:#000000;stroke-width:2.05479097px;stroke-linecap:butt;stroke-linejoin:miter;stroke-opacity:1;display:inline"\\n       d="m 475.13179,495.30817 c 0,0 0,0 0,0 z"\\n       id="path3065-5"\\n       inkscape:connector-curvature="0" />\\n    <path\\n       style="fill:none;stroke:#000000;stroke-width:1px;stroke-linecap:butt;stroke-linejoin:miter;stroke-opacity:1;display:inline"\\n       d="m 318.92858,555.3979 37.23214,0"\\n       id="path3764"\\n       inkscape:connector-curvature="0" />\\n    <path\\n       style="fill:none;stroke:#000000;stroke-width:1px;stroke-linecap:butt;stroke-linejoin:miter;stroke-opacity:1;display:inline"\\n       d="m 326.07143,134.50504 0,34.64286 2.14286,0 0,-39.64286 -85.35715,0 0,1.78571 83.21429,0 z"\\n       id="path3766"\\n       inkscape:connector-curvature="0" />\\n    <path\\n       style="fill:none;stroke:#000000;stroke-width:1.33274043px;stroke-linecap:butt;stroke-linejoin:miter;stroke-opacity:1;display:inline"\\n       d="m 346.09463,118.9562 0,49.65598 2.65538,0 0,-56.82282 -105.7726,0 0,2.55958 103.11722,0 z"\\n       id="path3766-1"\\n       inkscape:connector-curvature="0" />\\n    <path\\n       style="fill:#ffffff;stroke:#000000;stroke-width:1px;stroke-linecap:butt;stroke-linejoin:miter;stroke-opacity:1;display:inline"\\n       d="m 319.22067,555.95927 0,-38.38579 c -41.51677,-2.7392 -74.5314,-2.65841 -111.11677,-28.57143 l 0,-314.88043 c 9.70703,-0.87181 -1.01536,-10.79267 67.97607,-11.42857 l 0.71429,-16.8557 49.08957,0"\\n       id="path3664-7"\\n       inkscape:connector-curvature="0"\\n       sodipodi:nodetypes="ccccccc" />\\n    <path\\n       style="fill:none;stroke:#000000;stroke-width:1px;stroke-linecap:butt;stroke-linejoin:miter;stroke-opacity:1;display:inline"\\n       d="m 282.0851,145.75027 0,22.98097 c -59.7664,1.02972 -62.16605,5.5574 -68.43784,9.84899 l -0.15319,306.28195 c 41.281,26.26311 76.00101,21.0335 112.9345,26.42857 l 0.17857,43.75"\\n       id="path3849"\\n       inkscape:connector-curvature="0"\\n       sodipodi:nodetypes="cccccc" />\\n    <path\\n       style="fill:none;stroke:#000000;stroke-width:1px;stroke-linecap:butt;stroke-linejoin:miter;stroke-opacity:1;display:inline"\\n       d="m 392.51908,146.19909 0,22.98097 c 59.7664,1.02972 62.16605,5.5574 68.43784,9.84899 l 0.15319,306.28195 c -41.281,26.26311 -76.00101,21.0335 -112.9345,26.42857 l 0,43.21429"\\n       id="path3849-5"\\n       inkscape:connector-curvature="0"\\n       sodipodi:nodetypes="cccccc" />\\n    <path\\n       style="fill:none;stroke:#000000;stroke-width:1px;stroke-linecap:butt;stroke-linejoin:miter;stroke-opacity:1;display:inline"\\n       d="m 326.53181,555.11459 21.2132,20.96067 -21.2132,-0.25254 21.71828,-19.95051"\\n       id="path3873"\\n       inkscape:connector-curvature="0" />\\n    <path\\n       style="fill:none;stroke:#000000;stroke-width:1px;stroke-linecap:butt;stroke-linejoin:miter;stroke-opacity:1;display:inline"\\n       d="m 337.64349,565.72119 29.54696,0 0,-11.36421 19.95051,0 0,20.96066 -19.95051,0 0,-9.59645"\\n       id="path3875"\\n       inkscape:connector-curvature="0" />\\n    <path\\n       style="fill:#037c03;fill-opacity:1;fill-rule:evenodd;stroke:#000000;stroke-width:0.38267717;stroke-linecap:square;stroke-linejoin:miter;stroke-miterlimit:4;stroke-opacity:1;stroke-dasharray:none;display:inline"\\n       d="m 319.71665,535.61531 c 0,-18.71366 -0.052,-19.1929 -2.08355,-19.1929 -5.90819,0 -33.21418,-2.28378 -43.37332,-3.62761 -23.61644,-3.12391 -40.88064,-9.18824 -59.332,-20.84133 l -6.32791,-3.99643 0.0145,-156.23056 0.0146,-156.23056 5.24567,-2.89456 c 9.93057,-5.47971 20.97648,-7.45946 47.00062,-8.42387 l 16.41498,-0.60832 0,-8.4313 c 0,-7.75786 0.16137,-8.43129 2.02031,-8.43129 1.89061,0 2.0203,0.67343 2.0203,10.4909 l 0,10.49091 -17.42513,0.68594 c -28.68846,1.12932 -42.14873,3.29301 -48.465,7.7906 l -2.80024,1.99395 0,153.79933 0,153.79932 7.3236,4.17532 c 20.38007,11.61901 40.52043,16.53718 81.56982,19.91892 10.2783,0.84675 19.93789,1.79853 21.46574,2.11505 l 2.77792,0.5755 0,21.13295 0,21.13294 -3.03046,0 -3.03045,0 0,-19.1929 0,0 z"\\n       id="path3879"\\n       inkscape:connector-curvature="0" />\\n    <path\\n       style="fill:#037c03;fill-opacity:1;fill-rule:evenodd;stroke:#000000;stroke-width:0.38267714;stroke-linecap:square;stroke-linejoin:miter;stroke-miterlimit:4;stroke-opacity:1;stroke-dasharray:none;display:inline"\\n       d="m 348.93558,533.47268 0,-21.1985 5.08929,-0.5893 c 5.45812,-0.63199 10.78727,-1.11019 28.48214,-2.55573 6.1875,-0.50547 13.74107,-1.23375 16.78572,-1.61839 22.49923,-2.84239 40.83015,-8.87732 57.94643,-19.07719 l 4.55357,-2.71355 0,-68.91728 0,-68.91727 2.32143,0 2.32142,0 0,70.34793 0,70.34793 -3.19008,2.14501 c -14.20389,9.55068 -28.95733,15.88588 -45.90062,19.70998 -11.27584,2.54496 -24.03474,4.0569 -46.86957,5.5541 l -15.11115,0.99079 0,18.84499 0,18.84498 -3.21429,0 -3.21429,0 0,-21.1985 z"\\n       id="path3881"\\n       inkscape:connector-curvature="0" />\\n    <path\\n       style="fill:#037c03;fill-opacity:1;fill-rule:evenodd;stroke:#000000;stroke-width:0.38267714;stroke-linecap:square;stroke-linejoin:miter;stroke-miterlimit:4;stroke-opacity:1;stroke-dasharray:none;display:inline"\\n       d="m 157.86416,592.23778 0,-10.6477 22.75836,-49.70945 c 20.51975,-44.81978 22.83835,-49.70945 23.57143,-49.70945 0.70558,0 0.81306,0.18227 0.81306,1.37873 0,0.7583 0.1008,2.11413 0.224,3.01296 l 0.224,1.63423 -1.54807,0.11204 -1.54806,0.11204 -16.15512,36.25 c -8.88532,19.9375 -16.78181,37.61608 -17.54775,39.28572 -0.76595,1.66964 -2.86461,6.37079 -4.66368,10.44699 l -3.27103,7.41128 0,10.53515 0,10.53515 -1.42857,0 -1.42857,0 0,-10.64769 z"\\n       id="path3883"\\n       inkscape:connector-curvature="0" />\\n    <path\\n       style="fill:#037c03;fill-opacity:1;fill-rule:evenodd;stroke:#000000;stroke-width:0.38267714;stroke-linecap:square;stroke-linejoin:miter;stroke-miterlimit:4;stroke-opacity:1;stroke-dasharray:none;display:inline"\\n       d="m 170.37026,592.26047 0.006,-10.625 20.10725,-43.54969 c 11.05898,-23.95233 20.26363,-43.60182 20.45476,-43.66553 0.19113,-0.0637 0.60558,0.0872 0.92099,0.33541 0.51011,0.40138 -1.59293,5.24203 -19.0323,43.80739 l -19.60577,43.35616 0,10.48313 0,10.48313 -1.42857,0 -1.42857,0 0.006,-10.625 0,0 z"\\n       id="path3885"\\n       inkscape:connector-curvature="0" />\\n    <path\\n       style="fill:#037c03;fill-opacity:1;fill-rule:evenodd;stroke:#000000;stroke-width:0.38267717;stroke-linecap:square;stroke-linejoin:miter;stroke-miterlimit:4;stroke-opacity:1;stroke-dasharray:none;display:inline"\\n       d="m 501.3959,591.63288 -0.002,-10.73287 -19.41443,-42.93149 c -12.18002,-26.93396 -19.23714,-43.11028 -18.93869,-43.4113 0.30042,-0.30302 0.65619,-0.29935 0.9655,0.01 0.26939,0.26939 9.4744,19.95645 20.45559,43.74904 l 19.9658,43.25925 0,10.39514 0,10.39514 -1.51523,0 -1.51522,0 -0.002,-10.73287 2e-5,0 z"\\n       id="path3887"\\n       inkscape:connector-curvature="0" />\\n    <path\\n       style="fill:#037c03;fill-opacity:1;fill-rule:evenodd;stroke:#000000;stroke-width:0.38267717;stroke-linecap:square;stroke-linejoin:miter;stroke-miterlimit:4;stroke-opacity:1;stroke-dasharray:none;display:inline"\\n       d="m 514.00168,591.88542 -0.0228,-10.98541 -20.63443,-46.21448 c -19.92418,-44.62375 -20.68834,-46.23004 -22.20058,-46.66635 -1.66687,-0.48093 -1.87106,-1.18035 -1.25049,-4.28322 0.36996,-1.84977 1.32116,-2.05257 2.07291,-0.44194 0.29172,0.62503 10.556,23.02186 22.8095,49.77073 l 22.27909,48.6343 0,10.58589 0,10.58588 -1.51523,0 -1.51523,0 -0.0228,-10.9854 0,0 z"\\n       id="path3889"\\n       inkscape:connector-curvature="0" />\\n    <path\\n       style="fill:#037c03;fill-opacity:1;fill-rule:evenodd;stroke:#000000;stroke-width:0.38267717;stroke-linecap:square;stroke-linejoin:miter;stroke-miterlimit:4;stroke-opacity:1;stroke-dasharray:none;display:inline"\\n       d="m 461.67909,262.98395 0,-84.32203 -1.6415,-1.2307 c -6.83229,-5.12248 -18.57699,-7.16745 -48.36105,-8.42056 -6.52811,-0.27466 -13.28982,-0.49989 -15.02602,-0.50052 l -3.15673,-0.001 0,-10.85914 0,-10.85914 1.99742,0 c 2.3942,0 2.3849,-0.0333 2.72472,9.75492 0.12357,3.55957 0.30489,6.54996 0.40292,6.64531 0.098,0.0954 6.88313,0.42157 15.07799,0.72491 16.12014,0.5967 25.67623,1.48823 33.56295,3.13123 6.49081,1.3522 9.4578,2.48752 13.72516,5.25197 1.90963,1.23708 3.86981,2.2541 4.35594,2.26005 0.83831,0.0102 0.88388,4.4644 0.88388,86.37885 l 0,86.36804 -2.27284,0 -2.27284,0 0,-84.32204 z"\\n       id="path3891"\\n       inkscape:connector-curvature="0" />\\n    <path\\n       style="fill:#b3b3b3;fill-opacity:1;fill-rule:evenodd;stroke:#000000;stroke-width:0.38267714;stroke-linecap:square;stroke-linejoin:miter;stroke-miterlimit:4;stroke-opacity:1;stroke-dasharray:none;display:inline"\\n       d="m 326.64571,149.67385 0,-18.92857 -41.33929,0 -41.33929,0 0,-0.21591 c 0,-0.11875 0.0244,-0.27946 0.0542,-0.35714 0.0493,-0.12851 3.81833,-0.14123 41.83036,-0.14123 l 41.77616,0 0,19.28571 0,19.28572 -0.49107,0 -0.49107,0 0,-18.92858 z"\\n       id="path3895"\\n       inkscape:connector-curvature="0" />\\n    <path\\n       style="fill:#b3b3b3;fill-opacity:1;fill-rule:evenodd;stroke:#000000;stroke-width:0.38267717;stroke-linecap:square;stroke-linejoin:miter;stroke-miterlimit:4;stroke-opacity:1;stroke-dasharray:none;display:inline"\\n       d="m 346.88043,140.72689 0,-27.14785 -51.58091,0 -51.58092,0 0,-0.50507 0,-0.50508 52.14913,0 52.14912,0 0,27.65293 0,27.65292 -0.56821,0 -0.56821,0 0,-27.14785 z"\\n       id="path3897"\\n       inkscape:connector-curvature="0" />\\n    <path\\n       style="fill:#f8c806;fill-opacity:1;fill-rule:evenodd;stroke:#000000;stroke-width:0.38267714;stroke-linecap:square;stroke-linejoin:miter;stroke-miterlimit:4;stroke-opacity:1;stroke-dasharray:none;display:inline"\\n       d="m 328.60168,575.13637 c 0,-0.18882 1.48727,-1.60699 7.15865,-6.82599 l 1.63288,-1.50264 4.25936,4.27049 4.25937,4.2705 -8.65513,0 c -4.76032,0 -8.65513,-0.0956 -8.65513,-0.21236 z"\\n       id="path3915"\\n       inkscape:connector-curvature="0" />\\n    <path\\n       style="fill:#f8c806;fill-opacity:1;fill-rule:evenodd;stroke:#000000;stroke-width:0.38267714;stroke-linecap:square;stroke-linejoin:miter;stroke-miterlimit:4;stroke-opacity:1;stroke-dasharray:none;display:inline"\\n       d="m 332.85014,560.36585 -4.42704,-4.26858 9.28572,-0.002 9.28571,-0.002 -1.28741,1.14585 c -0.70807,0.63022 -2.81598,2.5521 -4.68423,4.27085 -1.86825,1.71875 -3.47532,3.125 -3.57127,3.125 -0.0959,0 -2.16661,-1.92086 -4.60148,-4.26859 z"\\n       id="path3919"\\n       inkscape:connector-curvature="0" />\\n    <path\\n       style="fill:none;stroke:#000000;stroke-width:1px;stroke-linecap:butt;stroke-linejoin:miter;stroke-opacity:1;display:inline"\\n       d="m 345.72471,168.60497 -17.5514,0"\\n       id="path3921"\\n       inkscape:connector-curvature="0" />\\n    <path\\n       style="fill:#00ff00;fill-opacity:1;fill-rule:evenodd;stroke:#000000;stroke-width:0.38267717;stroke-linecap:square;stroke-linejoin:miter;stroke-miterlimit:4;stroke-opacity:1;stroke-dasharray:none;display:inline;filter:url(#filter3276)"\\n       d="m 327.23323,532.53867 0,-22.09862 -9.34391,-1.09143 c -5.13915,-0.60027 -13.20775,-1.36722 -17.93021,-1.7043 -36.08293,-2.57559 -61.33719,-8.96535 -79.82781,-20.1978 l -6.03516,-3.66617 0,-71.98583 c 0,-39.59221 0.30243,-108.23791 0.67206,-152.54602 l 0.67206,-80.56018 2.29518,-1.50387 c 5.62976,-3.68876 20.6241,-5.81855 49.14117,-6.97999 l 15.90991,-0.64798 0,-11.5104 0,-11.5104 21.2132,0 21.2132,0 0,11.61675 0,11.61676 12.12183,0 12.12183,0 0,-11.61676 0,-11.61675 21.21321,0 21.2132,0 0,11.57098 0,11.57098 3.283,0.49797 c 1.80565,0.27388 10.97642,0.76195 20.37949,1.0846 24.01142,0.8239 36.93182,2.93427 42.09312,6.87535 1.45746,1.11289 1.6651,15.77022 2.17957,153.85345 l 0.56866,152.62338 -7.23034,3.95026 c -22.2422,12.15196 -37.75876,15.98376 -79.49802,19.63202 -13.55844,1.18509 -25.00507,2.37309 -25.43695,2.64001 -0.43188,0.26691 -0.78524,10.2317 -0.78524,22.14397 l 0,21.65866 -10.10153,0 -10.10152,0 0,-22.09864 z"\\n       id="path3923"\\n       inkscape:connector-curvature="0" />\\n    <path\\n       style="fill:#0066ff;fill-opacity:0.7;fill-rule:evenodd;stroke:#0066ff;stroke-width:0.19328116;stroke-linecap:square;stroke-linejoin:miter;stroke-miterlimit:4;stroke-opacity:1;stroke-dasharray:none;display:inline"\\n       d="m 327.76758,532.16119 c 0,-12.91679 -0.19133,-22.22336 -0.4569,-22.22336 -0.25129,0 -3.4901,-0.33206 -7.19734,-0.73791 -3.70723,-0.40586 -12.99075,-1.31227 -20.63003,-2.01426 -34.11439,-3.13486 -52.18712,-7.07366 -69.43164,-15.13206 -4.86938,-2.27548 -13.90594,-7.25326 -13.90594,-7.66008 0,-0.11802 54.83234,-0.20735 121.84965,-0.19852 107.59214,0.0142 121.73419,0.10338 120.86289,0.76225 -0.54271,0.4104 -5.54297,3.01001 -11.11168,5.77691 -20.8552,10.36223 -32.98895,13.11188 -75.78483,17.17368 -17.24388,1.63664 -23.49561,2.37684 -23.95673,2.83645 -0.57862,0.57672 -0.94455,10.4606 -0.99393,26.84647 l -0.0506,16.79378 -9.59645,0 -9.59645,0 0,-22.22335 z"\\n       id="path3211"\\n       inkscape:connector-curvature="0" />\\n    <path\\n       style="fill:#ff0000;fill-opacity:1;fill-rule:evenodd;stroke:#000000;stroke-width:0.09664058;stroke-linecap:square;stroke-linejoin:miter;stroke-miterlimit:4;stroke-opacity:1;stroke-dasharray:none;filter:url(#filter3229)"\\n       d="m 367.81764,564.76487 0,-9.84898 9.34391,0 9.34391,0 0,9.84898 0,9.84899 -9.34391,0 -9.34391,0 0,-9.84899 z"\\n       id="valvula_vaciado"\\n       inkscape:connector-curvature="0" />\\n    <path\\n       style="fill:none;stroke:#000000;stroke-width:1px;stroke-linecap:butt;stroke-linejoin:miter;stroke-opacity:1;display:inline"\\n       d="m 222.49234,131.79731 20.96067,-21.2132 -0.25254,21.2132 -19.95051,-21.71828"\\n       id="path3873-9"\\n       inkscape:connector-curvature="0" />\\n    <path\\n       style="fill:none;stroke:#000000;stroke-width:1px;stroke-linecap:butt;stroke-linejoin:miter;stroke-opacity:1;display:inline"\\n       d="m 233.09894,120.68563 0,-29.54696 -11.36421,0 0,-19.95051 20.96066,0 0,19.95051 -9.59645,0"\\n       id="path3875-4"\\n       inkscape:connector-curvature="0" />\\n    <path\\n       style="fill:#f8c806;fill-opacity:1;fill-rule:evenodd;stroke:#000000;stroke-width:0.38267714;stroke-linecap:square;stroke-linejoin:miter;stroke-miterlimit:4;stroke-opacity:1;stroke-dasharray:none;display:inline"\\n       d="m 242.51412,129.72744 c -0.18882,0 -1.60699,-1.48727 -6.82599,-7.15865 l -1.50264,-1.63288 4.27049,-4.25936 4.2705,-4.25937 0,8.65513 c 0,4.76032 -0.0956,8.65513 -0.21236,8.65513 z"\\n       id="path3915-8"\\n       inkscape:connector-curvature="0" />\\n    <path\\n       style="fill:#f8c806;fill-opacity:1;fill-rule:evenodd;stroke:#000000;stroke-width:0.38267714;stroke-linecap:square;stroke-linejoin:miter;stroke-miterlimit:4;stroke-opacity:1;stroke-dasharray:none;display:inline"\\n       d="m 227.7436,125.47898 -4.26858,4.42704 -0.002,-9.28572 -0.002,-9.28571 1.14585,1.28741 c 0.63022,0.70807 2.5521,2.81598 4.27085,4.68423 1.71875,1.86825 3.125,3.47532 3.125,3.57127 0,0.0959 -1.92086,2.16661 -4.26859,4.60148 z"\\n       id="path3919-8"\\n       inkscape:connector-curvature="0" />\\n    <path\\n       style="fill:#ff0000;fill-opacity:1;fill-rule:evenodd;stroke:#000000;stroke-width:0.09664058;stroke-linecap:square;stroke-linejoin:miter;stroke-miterlimit:4;stroke-opacity:1;stroke-dasharray:none;filter:url(#filter3229-1)"\\n       d="m 730.57688,413.94577 0,-9.84898 9.34391,0 9.34391,0 0,9.84898 0,9.84899 -9.34391,0 -9.34391,0 0,-9.84899 z"\\n       id="valvula_llenado"\\n       inkscape:connector-curvature="0"\\n       transform="matrix(0,-1,1,0,-181.80315,821.08836)" />\\n    <path\\n       style="fill:none;stroke:#000000;stroke-width:1px;stroke-linecap:butt;stroke-linejoin:miter;stroke-opacity:1"\\n       d="m 222.88047,131.26693 -0.17858,-21.60714 0,0"\\n       id="path3528"\\n       inkscape:connector-curvature="0"\\n       sodipodi:nodetypes="ccc" />\\n    <rect\\n       style="fill:#0066ff;fill-opacity:0.7;fill-rule:evenodd;stroke:#0066ff;stroke-width:0.38161018;stroke-linecap:square;stroke-linejoin:miter;stroke-miterlimit:4;stroke-opacity:0.5;stroke-dasharray:none"\\n       id="nivel_deposito"\\n       width="225.87798"\\n       height="133.57143"\\n       x="233.40773"\\n       y="350.93362"\\n       transform="matrix(-1.0794624,0,0,-1,711.24056,835.43867)" />\\n    <path\\n       style="fill:#ffffff;fill-opacity:1;fill-rule:evenodd;stroke:#000000;stroke-width:0.13667041;stroke-linecap:square;stroke-linejoin:miter;stroke-miterlimit:4;stroke-opacity:1;stroke-dasharray:none"\\n       d="m 331.09434,601.25231 c -5.50493,-3.2429 -5.65705,-3.3633 -4.24936,-3.3633 l 1.45995,0 0.22937,-2.94643 c 0.12615,-1.62054 0.23033,-6.44197 0.23151,-10.71429 l 0.002,-7.76786 3.125,10e-4 c 1.71875,7.2e-4 5.41517,0.10608 8.21428,0.23413 l 5.08929,0.23282 0,10.65873 0,10.65873 1.32923,0 c 1.2388,0 0.96749,0.21867 -3.98805,3.21428 -2.92451,1.76786 -5.41106,3.20099 -5.52567,3.18474 -0.1146,-0.0163 -2.77756,-1.54304 -5.91769,-3.39286 l 0,0 z"\\n       id="salida_agua"\\n       inkscape:connector-curvature="0" />\\n    <path\\n       style="fill:#93a7ac;fill-opacity:1;fill-rule:evenodd;stroke:#000000;stroke-width:0.19337453;stroke-linecap:square;stroke-linejoin:miter;stroke-miterlimit:4;stroke-opacity:1;stroke-dasharray:none"\\n       d="m 330.94862,167.66565 -2.14864,-0.48071 0,-19.41572 -0.17857,-18.88 -42.28884,-0.53571 -42.28883,0.53571 -0.35714,-7.84663 0.17857,-6.06091 51.30087,0.17857 50.05087,0 -10e-4,13.51079 c -0.002,22.06343 0.88223,38.39514 0.0477,39.22891 -0.83092,0.83011 -10.80904,0.55002 -14.31479,-0.2343 l -1.6e-4,0 z"\\n       id="entrada_agua"\\n       inkscape:connector-curvature="0"\\n       sodipodi:nodetypes="cccccccccccsccc" />\\n  </g>\\n</svg>\\n\\n\\n\\n\\n\\n\\n\\n\\n\\n<script language="javascript">\\n  var est=0; \\n  var est2=0;\\n  var datos3={\\\'E_led13\\\':0,\\\'E_led12\\\':0,\\\'E_nivel\\\':0};\\n\\n  function temporizador() {\\n        timer = setTimeout("temporizador()", 2000);\\n        pidehora();\\n        movernivel();\\n        \\n  }\\n\\n  function pidehora() {\\n        jQuery.post( "\', escape=False)\nresponse.write(URL(\'default\',\'pide_hora.json\'))\nresponse.write(\'")\\n        .success(function(datos_recibidos) {\\n                  jQuery("#fecha").html(datos_recibidos["fecha"]);\\n                  jQuery("#hora").html(datos_recibidos["hora"]);        \\n        });\\n  }    \\n\\n  function enviodatos() {\\n        \\t\\n        var datos={\\\'estado1\\\':  jQuery("#estado_valvula1").val(), \\\'estado12\\\': est};\\n\\n        jQuery.post("\', escape=False)\nresponse.write(URL(\'default\',\'recibe_datos.json\'))\nresponse.write(\'", datos, {contentType: \\\'application/json\\\'} )\\n              .success(function(datos_recibidos) { \\n                  var reci=datos_recibidos["1"];\\n                  if(reci==\\\'green\\\'){\\n                  \\test=1;\\n                  \\tsalida_agua.style.fill=\\\'0066ff\\\'\\n                  \\tjQuery("#resultado").html("ABIERTA");\\n                  \\t\\n                  };\\n                  if(reci==\\\'red\\\'){\\n                  \\test=0;\\n                  \\tsalida_agua.style.fill=\\\'ffffff\\\'\\n                  \\tjQuery("#resultado").html("CERRADA");\\n                  };\\n                  window.console.log(reci);          \\n                  valvula_vaciado.style.fill=reci\\n\\n        }); \\n\\n  }\\n  \\n  function enviodatos2() {\\n        \\t\\n        var datos2={\\\'estado2\\\':  jQuery("#estado_valvula2").val(), \\\'estado22\\\': est2};\\n\\n        jQuery.post("\', escape=False)\nresponse.write(URL(\'default\',\'recibe_datos2.json\'))\nresponse.write(\'", datos2, {contentType: \\\'application/json\\\'} )\\n              .success(function(datos_recibidos2) { \\n                  var reci2=datos_recibidos2["1"];\\n                  if(reci2==\\\'green\\\'){\\n                  \\test2=1;\\n                  \\tentrada_agua.style.fill=\\\'0066ff\\\'\\n                  \\tjQuery("#resultado2").html("ABIERTA");\\n                  \\t\\n                  };\\n                  if(reci2==\\\'red\\\'){\\n                  \\test2=0;\\n                  \\tentrada_agua.style.fill=\\\'ACA793\\\'\\n                  \\tjQuery("#resultado2").html("CERRADA");\\n                  };\\n                  window.console.log(reci2);          \\n                  \\n                  valvula_llenado.style.fill=reci2\\n\\n        }); \\n\\n  }\\n  \\n  function movernivel() {\\n        jQuery.post( "\', escape=False)\nresponse.write(URL(\'default\',\'recibe_datos3\'.json\'))\nresponse.write(\'")\\n        .success(function(datos_recibidos3) {\\n                  var tama\\xc3\\xb1o1= datos3.E_nivel;\\n                  jQuery(\\\'#nivel_deposito\\\').attr(\\\'height\\\',tama\\xc3\\xb1o1);        \\n        });\\t\\n        \\t\\n        window.console.log(tama\\xc3\\xb1o1); \\n\\n  }\\n\\n\\n\\n\\n  jQuery(document).ready(function() {\\n      timer = setTimeout("temporizador()", 500);\\n      \\n      jQuery("#encender").click(function() {\\n          enviodatos();\\n      });\\n      \\n      jQuery("#encender2").click(function() {\\n          enviodatos2();\\n      });\\n      \\n  });\\n\\n\\n</script>\\n\', escape=False)\nresponse.write(\'\\n            \', escape=False)\nresponse.write(\'\\n        </div>\\n\\n        \', escape=False)\nif right_sidebar_enabled:\n    response.write(\'\\n        <div class="span3">\\n            \', escape=False)\n    response.write(\'\\n            <h3>Right Sidebar</h3>\\n            <p></p>\\n            \', escape=False)\n    response.write(\'\\n        </div>\\n        \', escape=False)\n    pass\nresponse.write(\'\\n    </section><!--/main-->\\n\\n    <!-- Footer ================================================== -->\\n    <div class="row">\\n        <footer class="footer span12" id="footer">\\n            <div class="footer-content">\\n                \', escape=False)\nresponse.write(\' <!-- this is default footer -->\\n                <div class="copyright pull-left">\', escape=False)\nresponse.write(T(\'Copyright\'))\nresponse.write(\' &#169; \', escape=False)\nresponse.write(request.now.year)\nresponse.write(\'</div>\\n                <div id="poweredBy" class="pull-right">\\n                    \', escape=False)\nresponse.write(T(\'Powered by\'))\nresponse.write(\'\\n                    <a href="http://www.web2py.com/">web2py</a>\\n                </div>\\n                \', escape=False)\nresponse.write(\'\\n            </div>\\n        </footer>\\n    </div>\\n\\n  </div> <!-- /container -->\\n\\n  <!-- The javascript =============================================\\n       (Placed at the end of the document so the pages load faster) -->\\n  <script src="\', escape=False)\nresponse.write(URL(\'static\',\'js/bootstrap.min.js\'))\nresponse.write(\'"></script>\\n  <script src="\', escape=False)\nresponse.write(URL(\'static\',\'js/web2py_bootstrap.js\'))\nresponse.write(\'"></script>\\n  <!--[if lt IE 7 ]>\\n      <script src="\', escape=False)\nresponse.write(URL(\'static\',\'js/dd_belatedpng.js\'))\nresponse.write(\'"></script>\\n      <script> DD_belatedPNG.fix(\\\'img, .png_bg\\\'); //fix any <img> or .png_bg background-images </script>\\n      <![endif]-->\\n  \\n  \', escape=False)\nif response.google_analytics_id:\n    response.write(\'\\n  <script src="\', escape=False)\n    response.write(URL(\'static\',\'js/analytics.min.js\'))\n    response.write(\'"></script>\\n  <script type="text/javascript">\\n  analytics.initialize({\\n    \\\'Google Analytics\\\':{trackingId:\\\'\', escape=False)\n    response.write(response.google_analytics_id)\n    response.write("\'} \\n  });</script>\\n  ", escape=False)\n    pass\nresponse.write(\'\\n  <script src="\', escape=False)\nresponse.write(URL(\'static\',\'js/share.js\',vars=dict(static=URL(\'static\',\'images\'))))\nresponse.write(\'"></script>\\n</body>\\n</html>\\n\\n\', escape=False)'
p7
sS'snapshot'
p8
(dp9
S'exception'
p10
(dp11
S'__getslice__'
p12
S"<method-wrapper '__getslice__' of exceptions.SyntaxError object>"
p13
sS'text'
p14
S'"response.write(URL(\'default\',\'recibe_datos3\'.json\'))\\n"'
p15
sS'__str__'
p16
S"<method-wrapper '__str__' of exceptions.SyntaxError object>"
p17
sS'__reduce__'
p18
S'<built-in method __reduce__ of exceptions.SyntaxError object>'
p19
sS'__dict__'
p20
S'{}'
p21
sS'__sizeof__'
p22
S'<built-in method __sizeof__ of exceptions.SyntaxError object>'
p23
sS'__init__'
p24
S"<method-wrapper '__init__' of exceptions.SyntaxError object>"
p25
sS'__setattr__'
p26
S"<method-wrapper '__setattr__' of exceptions.SyntaxError object>"
p27
sS'__reduce_ex__'
p28
S'<built-in method __reduce_ex__ of exceptions.SyntaxError object>'
p29
sS'__new__'
p30
S'<built-in method __new__ of type object>'
p31
sS'__format__'
p32
S'<built-in method __format__ of exceptions.SyntaxError object>'
p33
sS'__class__'
p34
S"<type 'exceptions.SyntaxError'>"
p35
sS'filename'
p36
S"r'C:\\Users\\Aster\\Desktop\\web2py\\applications\\SCADA_con_arduino\\views\\default/index.html'"
p37
sS'lineno'
p38
S'100'
p39
sS'msg'
p40
S"'EOL while scanning string literal'"
p41
sS'__doc__'
p42
S"'Invalid syntax.'"
p43
sS'__getitem__'
p44
S"<method-wrapper '__getitem__' of exceptions.SyntaxError object>"
p45
sS'__setstate__'
p46
S'<built-in method __setstate__ of exceptions.SyntaxError object>'
p47
sS'__getattribute__'
p48
S"<method-wrapper '__getattribute__' of exceptions.SyntaxError object>"
p49
sS'print_file_and_line'
p50
S'None'
p51
sS'args'
p52
S'(\'EOL while scanning string literal\', (r\'C:\\Users\\Aster\\Desktop\\web2py\\applications\\SCADA_con_arduino\\views\\default/index.html\', 100, 52, "response.write(URL(\'default\',\'recibe_datos3\'.json\'))\\n"))'
p53
sS'__subclasshook__'
p54
S'<built-in method __subclasshook__ of type object>'
p55
sS'offset'
p56
S'52'
p57
sS'__unicode__'
p58
S'<built-in method __unicode__ of exceptions.SyntaxError object>'
p59
sS'__delattr__'
p60
S"<method-wrapper '__delattr__' of exceptions.SyntaxError object>"
p61
sS'__repr__'
p62
S"<method-wrapper '__repr__' of exceptions.SyntaxError object>"
p63
sS'__hash__'
p64
S"<method-wrapper '__hash__' of exceptions.SyntaxError object>"
p65
ssS'evalue'
p66
S'EOL while scanning string literal (default/index.html, line 100)'
p67
sS'request'
p68
cgluon.html
XML_unpickle
p69
(S's\x03V\x00\x00<div><table><tr><td style="font-weight:bold;vertical-align:top;">ajax</td><td style="vertical-align:top;">:</td><td><div>False</div></td></tr><tr><td style="font-weight:bold;vertical-align:top;">application</td><td style="vertical-align:top;">:</td><td><div>SCADA_con_arduino</div></td></tr><tr><td style="font-weight:bold;vertical-align:top;">args</td><td style="vertical-align:top;">:</td><td><div><table></table></div></td></tr><tr><td style="font-weight:bold;vertical-align:top;">cid</td><td style="vertical-align:top;">:</td><td><div>None</div></td></tr><tr><td style="font-weight:bold;vertical-align:top;">client</td><td style="vertical-align:top;">:</td><td><div>127.0.0.1</div></td></tr><tr><td style="font-weight:bold;vertical-align:top;">controller</td><td style="vertical-align:top;">:</td><td><div>default</div></td></tr><tr><td style="font-weight:bold;vertical-align:top;">cookies</td><td style="vertical-align:top;">:</td><td><div><table><tr><td style="font-weight:bold;vertical-align:top;">session_id_scada_con_arduino</td><td style="vertical-align:top;">:</td><td><div>127.0.0.1-68f54e5c-0317-49d1-a02d-3b1a42fdb512<table><tr><td style="font-weight:bold;vertical-align:top;">comment</td><td style="vertical-align:top;">:</td><td><div></div></td></tr><tr><td style="font-weight:bold;vertical-align:top;">domain</td><td style="vertical-align:top;">:</td><td><div></div></td></tr><tr><td style="font-weight:bold;vertical-align:top;">expires</td><td style="vertical-align:top;">:</td><td><div></div></td></tr><tr><td style="font-weight:bold;vertical-align:top;">httponly</td><td style="vertical-align:top;">:</td><td><div></div></td></tr><tr><td style="font-weight:bold;vertical-align:top;">max-age</td><td style="vertical-align:top;">:</td><td><div></div></td></tr><tr><td style="font-weight:bold;vertical-align:top;">path</td><td style="vertical-align:top;">:</td><td><div></div></td></tr><tr><td style="font-weight:bold;vertical-align:top;">secure</td><td style="vertical-align:top;">:</td><td><div></div></td></tr><tr><td style="font-weight:bold;vertical-align:top;">version</td><td style="vertical-align:top;">:</td><td><div></div></td></tr></table></div></td></tr><tr><td style="font-weight:bold;vertical-align:top;">session_id_welcome</td><td style="vertical-align:top;">:</td><td><div>127.0.0.1-466da28a-8455-4a04-8df0-b0348b48457b<table><tr><td style="font-weight:bold;vertical-align:top;">comment</td><td style="vertical-align:top;">:</td><td><div></div></td></tr><tr><td style="font-weight:bold;vertical-align:top;">domain</td><td style="vertical-align:top;">:</td><td><div></div></td></tr><tr><td style="font-weight:bold;vertical-align:top;">expires</td><td style="vertical-align:top;">:</td><td><div></div></td></tr><tr><td style="font-weight:bold;vertical-align:top;">httponly</td><td style="vertical-align:top;">:</td><td><div></div></td></tr><tr><td style="font-weight:bold;vertical-align:top;">max-age</td><td style="vertical-align:top;">:</td><td><div></div></td></tr><tr><td style="font-weight:bold;vertical-align:top;">path</td><td style="vertical-align:top;">:</td><td><div></div></td></tr><tr><td style="font-weight:bold;vertical-align:top;">secure</td><td style="vertical-align:top;">:</td><td><div></div></td></tr><tr><td style="font-weight:bold;vertical-align:top;">version</td><td style="vertical-align:top;">:</td><td><div></div></td></tr></table></div></td></tr></table></div></td></tr><tr><td style="font-weight:bold;vertical-align:top;">env</td><td style="vertical-align:top;">:</td><td><div><table><tr><td style="font-weight:bold;vertical-align:top;">HTTP_ACCEPT</td><td style="vertical-align:top;">:</td><td><div>text/html,application/xhtml+xml,application/xml;q=0.9,image/webp,*/*;q=0.8</div></td></tr><tr><td style="font-weight:bold;vertical-align:top;">HTTP_ACCEPT_ENCODING</td><td style="vertical-align:top;">:</td><td><div>gzip,deflate,sdch</div></td></tr><tr><td style="font-weight:bold;vertical-align:top;">HTTP_ACCEPT_LANGUAGE</td><td style="vertical-align:top;">:</td><td><div>es-ES,es;q=0.8</div></td></tr><tr><td style="font-weight:bold;vertical-align:top;">HTTP_CACHE_CONTROL</td><td style="vertical-align:top;">:</td><td><div>max-age=0</div></td></tr><tr><td style="font-weight:bold;vertical-align:top;">HTTP_CONNECTION</td><td style="vertical-align:top;">:</td><td><div>keep-alive</div></td></tr><tr><td style="font-weight:bold;vertical-align:top;">HTTP_COOKIE</td><td style="vertical-align:top;">:</td><td><div>session_id_welcome=127.0.0.1-466da28a-8455-4a04-8df0-b0348b48457b; session_id_scada_con_arduino=127.0.0.1-68f54e5c-0317-49d1-a02d-3b1a42fdb512</div></td></tr><tr><td style="font-weight:bold;vertical-align:top;">HTTP_HOST</td><td style="vertical-align:top;">:</td><td><div>127.0.0.1:8000</div></td></tr><tr><td style="font-weight:bold;vertical-align:top;">HTTP_USER_AGENT</td><td style="vertical-align:top;">:</td><td><div>Mozilla/5.0 (Windows NT 6.3; WOW64) AppleWebKit/537.36 (KHTML, like Gecko) Chrome/38.0.2125.104 Safari/537.36</div></td></tr><tr><td style="font-weight:bold;vertical-align:top;">PATH_INFO</td><td style="vertical-align:top;">:</td><td><div>/SCADA_con_arduino</div></td></tr><tr><td style="font-weight:bold;vertical-align:top;">QUERY_STRING</td><td style="vertical-align:top;">:</td><td><div></div></td></tr><tr><td style="font-weight:bold;vertical-align:top;">REMOTE_ADDR</td><td style="vertical-align:top;">:</td><td><div>127.0.0.1</div></td></tr><tr><td style="font-weight:bold;vertical-align:top;">REMOTE_PORT</td><td style="vertical-align:top;">:</td><td><div>59188</div></td></tr><tr><td style="font-weight:bold;vertical-align:top;">REQUEST_METHOD</td><td style="vertical-align:top;">:</td><td><div>GET</div></td></tr><tr><td style="font-weight:bold;vertical-align:top;">SCRIPT_NAME</td><td style="vertical-align:top;">:</td><td><div></div></td></tr><tr><td style="font-weight:bold;vertical-align:top;">SERVER_NAME</td><td style="vertical-align:top;">:</td><td><div>Asterio</div></td></tr><tr><td style="font-weight:bold;vertical-align:top;">SERVER_PORT</td><td style="vertical-align:top;">:</td><td><div>8000</div></td></tr><tr><td style="font-weight:bold;vertical-align:top;">SERVER_PROTOCOL</td><td style="vertical-align:top;">:</td><td><div>HTTP/1.1</div></td></tr><tr><td style="font-weight:bold;vertical-align:top;">SERVER_SOFTWARE</td><td style="vertical-align:top;">:</td><td><div>Rocket 1.2.6</div></td></tr><tr><td style="font-weight:bold;vertical-align:top;">app_folders</td><td style="vertical-align:top;">:</td><td><div>set([&#x27;C:\\\\Users\\\\Aster\\\\Desktop\\\\web2py\\\\applications\\\\SCADA_con_arduino\\\\&#x27;])</div></td></tr><tr><td style="font-weight:bold;vertical-align:top;">applications_parent</td><td style="vertical-align:top;">:</td><td><div>C:\\Users\\Aster\\Desktop\\web2py</div></td></tr><tr><td style="font-weight:bold;vertical-align:top;">cmd_args</td><td style="vertical-align:top;">:</td><td><div><table></table></div></td></tr><tr><td style="font-weight:bold;vertical-align:top;">cmd_options</td><td style="vertical-align:top;">:</td><td><div>&lt;Values at 0x3535588: {&#x27;verbose&#x27;: False, &#x27;ip&#x27;: &#x27;127.0.0.1&#x27;, &#x27;debuglevel&#x27;: 30, &#x27;with_scheduler&#x27;: False, &#x27;ips&#x27;: [], &#x27;shutdown_timeout&#x27;: 5, &#x27;taskbar&#x27;: False, &#x27;with_coverage&#x27;: False, &#x27;scheduler_groups&#x27;: None, &#x27;port&#x27;: 8000, &#x27;maxthreads&#x27;: None, &#x27;softcron&#x27;: False, &#x27;server_name&#x27;: &#x27;Asterio&#x27;, &#x27;bpython&#x27;: False, &#x27;nogui&#x27;: False, &#x27;pid_filename&#x27;: &#x27;httpserver.pid&#x27;, &#x27;extcron&#x27;: False, &#x27;runcron&#x27;: False, &#x27;run_system_tests&#x27;: False, &#x27;test&#x27;: None, &#x27;folder&#x27;: &#x27;C:\\\\Users\\\\Aster\\\\Desktop\\\\web2py&#x27;, &#x27;config&#x27;: &#x27;&#x27;, &#x27;minthreads&#x27;: None, &#x27;shell&#x27;: None, &#x27;run&#x27;: &#x27;&#x27;, &#x27;log_filename&#x27;: &#x27;httpserver.log&#x27;, &#x27;profiler_dir&#x27;: None, &#x27;args&#x27;: [&#x27;&#x27;], &#x27;socket_timeout&#x27;: 5, &#x27;ssl_ca_certificate&#x27;: None, &#x27;scheduler&#x27;: None, &#x27;interfaces&#x27;: None, &#x27;ssl_private_key&#x27;: &#x27;&#x27;, &#x27;gae&#x27;: None, &#x27;password&#x27;: &#x27;&lt;ask&gt;&#x27;, &#x27;request_queue_size&#x27;: 5, &#x27;ssl_certificate&#x27;: &#x27;&#x27;, &#x27;cronjob&#x27;: False, &#x27;numthreads&#x27;: None, &#x27;quiet&#x27;: False, &#x27;import_models&#x27;: False, &#x27;timeout&#x27;: 10, &#x27;plain&#x27;: False, &#x27;nobanner&#x27;: False}&gt;</div></td></tr><tr><td style="font-weight:bold;vertical-align:top;">db_sessions</td><td style="vertical-align:top;">:</td><td><div>set([])</div></td></tr><tr><td style="font-weight:bold;vertical-align:top;">debugging</td><td style="vertical-align:top;">:</td><td><div>False</div></td></tr><tr><td style="font-weight:bold;vertical-align:top;">gluon_parent</td><td style="vertical-align:top;">:</td><td><div>C:\\Users\\Aster\\Desktop\\web2py</div></td></tr><tr><td style="font-weight:bold;vertical-align:top;">http_accept</td><td style="vertical-align:top;">:</td><td><div>text/html,application/xhtml+xml,application/xml;q=0.9,image/webp,*/*;q=0.8</div></td></tr><tr><td style="font-weight:bold;vertical-align:top;">http_accept_encoding</td><td style="vertical-align:top;">:</td><td><div>gzip,deflate,sdch</div></td></tr><tr><td style="font-weight:bold;vertical-align:top;">http_accept_language</td><td style="vertical-align:top;">:</td><td><div>es-ES,es;q=0.8</div></td></tr><tr><td style="font-weight:bold;vertical-align:top;">http_cache_control</td><td style="vertical-align:top;">:</td><td><div>max-age=0</div></td></tr><tr><td style="font-weight:bold;vertical-align:top;">http_connection</td><td style="vertical-align:top;">:</td><td><div>keep-alive</div></td></tr><tr><td style="font-weight:bold;vertical-align:top;">http_cookie</td><td style="vertical-align:top;">:</td><td><div>session_id_welcome=127.0.0.1-466da28a-8455-4a04-8df0-b0348b48457b; session_id_scada_con_arduino=127.0.0.1-68f54e5c-0317-49d1-a02d-3b1a42fdb512</div></td></tr><tr><td style="font-weight:bold;vertical-align:top;">http_host</td><td style="vertical-align:top;">:</td><td><div>127.0.0.1:8000</div></td></tr><tr><td style="font-weight:bold;vertical-align:top;">http_user_agent</td><td style="vertical-align:top;">:</td><td><div>Mozilla/5.0 (Windows NT 6.3; WOW64) AppleWebKit/537.36 (KHTML, like Gecko) Chrome/38.0.2125.104 Safari/537.36</div></td></tr><tr><td style="font-weight:bold;vertical-align:top;">is_jython</td><td style="vertical-align:top;">:</td><td><div>False</div></td></tr><tr><td style="font-weight:bold;vertical-align:top;">is_pypy</td><td style="vertical-align:top;">:</td><td><div>False</div></td></tr><tr><td style="font-weight:bold;vertical-align:top;">is_source</td><td style="vertical-align:top;">:</td><td><div>True</div></td></tr><tr><td style="font-weight:bold;vertical-align:top;">local_hosts</td><td style="vertical-align:top;">:</td><td><div><table><tr><td><div>Asterio.Home</div></td></tr><tr><td><div>::ffff:127.0.0.1</div></td></tr><tr><td><div>::1</div></td></tr><tr><td><div>fe80::168:1404:7dfa:bb43%2</div></td></tr><tr><td><div>192.168.1.133</div></td></tr><tr><td><div>127.0.0.1</div></td></tr><tr><td><div>Asterio</div></td></tr></table></div></td></tr><tr><td style="font-weight:bold;vertical-align:top;">path_info</td><td style="vertical-align:top;">:</td><td><div>/SCADA_con_arduino</div></td></tr><tr><td style="font-weight:bold;vertical-align:top;">query_string</td><td style="vertical-align:top;">:</td><td><div></div></td></tr><tr><td style="font-weight:bold;vertical-align:top;">remote_addr</td><td style="vertical-align:top;">:</td><td><div>127.0.0.1</div></td></tr><tr><td style="font-weight:bold;vertical-align:top;">remote_port</td><td style="vertical-align:top;">:</td><td><div>59188</div></td></tr><tr><td style="font-weight:bold;vertical-align:top;">request_method</td><td style="vertical-align:top;">:</td><td><div>GET</div></td></tr><tr><td style="font-weight:bold;vertical-align:top;">request_uri</td><td style="vertical-align:top;">:</td><td><div>/SCADA_con_arduino</div></td></tr><tr><td style="font-weight:bold;vertical-align:top;">script_name</td><td style="vertical-align:top;">:</td><td><div></div></td></tr><tr><td style="font-weight:bold;vertical-align:top;">server_name</td><td style="vertical-align:top;">:</td><td><div>Asterio</div></td></tr><tr><td style="font-weight:bold;vertical-align:top;">server_port</td><td style="vertical-align:top;">:</td><td><div>8000</div></td></tr><tr><td style="font-weight:bold;vertical-align:top;">server_protocol</td><td style="vertical-align:top;">:</td><td><div>HTTP/1.1</div></td></tr><tr><td style="font-weight:bold;vertical-align:top;">server_software</td><td style="vertical-align:top;">:</td><td><div>Rocket 1.2.6</div></td></tr><tr><td style="font-weight:bold;vertical-align:top;">web2py_path</td><td style="vertical-align:top;">:</td><td><div>C:\\Users\\Aster\\Desktop\\web2py</div></td></tr><tr><td style="font-weight:bold;vertical-align:top;">web2py_version</td><td style="vertical-align:top;">:</td><td><div>2.9.11-stable+timestamp.2014.09.15.23.35.11</div></td></tr><tr><td style="font-weight:bold;vertical-align:top;">wsgi.errors</td><td style="vertical-align:top;">:</td><td><div>&lt;open file &#x27;&lt;stderr&gt;&#x27;, mode &#x27;w&#x27; at 0x0000000001BBF150&gt;</div></td></tr><tr><td style="font-weight:bold;vertical-align:top;">wsgi.file_wrapper</td><td style="vertical-align:top;">:</td><td><div>&lt;class wsgiref.util.FileWrapper at 0x00000000031C6708&gt;</div></td></tr><tr><td style="font-weight:bold;vertical-align:top;">wsgi.input</td><td style="vertical-align:top;">:</td><td><div>&lt;socket._fileobject object at 0x0000000003B825E8&gt;</div></td></tr><tr><td style="font-weight:bold;vertical-align:top;">wsgi.multiprocess</td><td style="vertical-align:top;">:</td><td><div>False</div></td></tr><tr><td style="font-weight:bold;vertical-align:top;">wsgi.multithread</td><td style="vertical-align:top;">:</td><td><div>True</div></td></tr><tr><td style="font-weight:bold;vertical-align:top;">wsgi.run_once</td><td style="vertical-align:top;">:</td><td><div>False</div></td></tr><tr><td style="font-weight:bold;vertical-align:top;">wsgi.url_scheme</td><td style="vertical-align:top;">:</td><td><div>http</div></td></tr><tr><td style="font-weight:bold;vertical-align:top;">wsgi.version</td><td style="vertical-align:top;">:</td><td><div><table><tr><td><div>1</div></td></tr><tr><td><div>0</div></td></tr></table></div></td></tr><tr><td style="font-weight:bold;vertical-align:top;">wsgi_errors</td><td style="vertical-align:top;">:</td><td><div>&lt;open file &#x27;&lt;stderr&gt;&#x27;, mode &#x27;w&#x27; at 0x0000000001BBF150&gt;</div></td></tr><tr><td style="font-weight:bold;vertical-align:top;">wsgi_file_wrapper</td><td style="vertical-align:top;">:</td><td><div>&lt;class wsgiref.util.FileWrapper at 0x00000000031C6708&gt;</div></td></tr><tr><td style="font-weight:bold;vertical-align:top;">wsgi_input</td><td style="vertical-align:top;">:</td><td><div>&lt;socket._fileobject object at 0x0000000003B825E8&gt;</div></td></tr><tr><td style="font-weight:bold;vertical-align:top;">wsgi_multiprocess</td><td style="vertical-align:top;">:</td><td><div>False</div></td></tr><tr><td style="font-weight:bold;vertical-align:top;">wsgi_multithread</td><td style="vertical-align:top;">:</td><td><div>True</div></td></tr><tr><td style="font-weight:bold;vertical-align:top;">wsgi_run_once</td><td style="vertical-align:top;">:</td><td><div>False</div></td></tr><tr><td style="font-weight:bold;vertical-align:top;">wsgi_url_scheme</td><td style="vertical-align:top;">:</td><td><div>http</div></td></tr><tr><td style="font-weight:bold;vertical-align:top;">wsgi_version</td><td style="vertical-align:top;">:</td><td><div><table><tr><td><div>1</div></td></tr><tr><td><div>0</div></td></tr></table></div></td></tr></table></div></td></tr><tr><td style="font-weight:bold;vertical-align:top;">extension</td><td style="vertical-align:top;">:</td><td><div>html</div></td></tr><tr><td style="font-weight:bold;vertical-align:top;">folder</td><td style="vertical-align:top;">:</td><td><div>C:\\Users\\Aster\\Desktop\\web2py\\applications\\SCADA_con_arduino\\</div></td></tr><tr><td style="font-weight:bold;vertical-align:top;">function</td><td style="vertical-align:top;">:</td><td><div>index</div></td></tr><tr><td style="font-weight:bold;vertical-align:top;">global_settings</td><td style="vertical-align:top;">:</td><td><div><table><tr><td style="font-weight:bold;vertical-align:top;">app_folders</td><td style="vertical-align:top;">:</td><td><div>set([&#x27;C:\\\\Users\\\\Aster\\\\Desktop\\\\web2py\\\\applications\\\\SCADA_con_arduino\\\\&#x27;])</div></td></tr><tr><td style="font-weight:bold;vertical-align:top;">applications_parent</td><td style="vertical-align:top;">:</td><td><div>C:\\Users\\Aster\\Desktop\\web2py</div></td></tr><tr><td style="font-weight:bold;vertical-align:top;">cmd_args</td><td style="vertical-align:top;">:</td><td><div><table></table></div></td></tr><tr><td style="font-weight:bold;vertical-align:top;">cmd_options</td><td style="vertical-align:top;">:</td><td><div>&lt;Values at 0x3535588: {&#x27;verbose&#x27;: False, &#x27;ip&#x27;: &#x27;127.0.0.1&#x27;, &#x27;debuglevel&#x27;: 30, &#x27;with_scheduler&#x27;: False, &#x27;ips&#x27;: [], &#x27;shutdown_timeout&#x27;: 5, &#x27;taskbar&#x27;: False, &#x27;with_coverage&#x27;: False, &#x27;scheduler_groups&#x27;: None, &#x27;port&#x27;: 8000, &#x27;maxthreads&#x27;: None, &#x27;softcron&#x27;: False, &#x27;server_name&#x27;: &#x27;Asterio&#x27;, &#x27;bpython&#x27;: False, &#x27;nogui&#x27;: False, &#x27;pid_filename&#x27;: &#x27;httpserver.pid&#x27;, &#x27;extcron&#x27;: False, &#x27;runcron&#x27;: False, &#x27;run_system_tests&#x27;: False, &#x27;test&#x27;: None, &#x27;folder&#x27;: &#x27;C:\\\\Users\\\\Aster\\\\Desktop\\\\web2py&#x27;, &#x27;config&#x27;: &#x27;&#x27;, &#x27;minthreads&#x27;: None, &#x27;shell&#x27;: None, &#x27;run&#x27;: &#x27;&#x27;, &#x27;log_filename&#x27;: &#x27;httpserver.log&#x27;, &#x27;profiler_dir&#x27;: None, &#x27;args&#x27;: [&#x27;&#x27;], &#x27;socket_timeout&#x27;: 5, &#x27;ssl_ca_certificate&#x27;: None, &#x27;scheduler&#x27;: None, &#x27;interfaces&#x27;: None, &#x27;ssl_private_key&#x27;: &#x27;&#x27;, &#x27;gae&#x27;: None, &#x27;password&#x27;: &#x27;&lt;ask&gt;&#x27;, &#x27;request_queue_size&#x27;: 5, &#x27;ssl_certificate&#x27;: &#x27;&#x27;, &#x27;cronjob&#x27;: False, &#x27;numthreads&#x27;: None, &#x27;quiet&#x27;: False, &#x27;import_models&#x27;: False, &#x27;timeout&#x27;: 10, &#x27;plain&#x27;: False, &#x27;nobanner&#x27;: False}&gt;</div></td></tr><tr><td style="font-weight:bold;vertical-align:top;">db_sessions</td><td style="vertical-align:top;">:</td><td><div>set([])</div></td></tr><tr><td style="font-weight:bold;vertical-align:top;">debugging</td><td style="vertical-align:top;">:</td><td><div>False</div></td></tr><tr><td style="font-weight:bold;vertical-align:top;">gluon_parent</td><td style="vertical-align:top;">:</td><td><div>C:\\Users\\Aster\\Desktop\\web2py</div></td></tr><tr><td style="font-weight:bold;vertical-align:top;">is_jython</td><td style="vertical-align:top;">:</td><td><div>False</div></td></tr><tr><td style="font-weight:bold;vertical-align:top;">is_pypy</td><td style="vertical-align:top;">:</td><td><div>False</div></td></tr><tr><td style="font-weight:bold;vertical-align:top;">is_source</td><td style="vertical-align:top;">:</td><td><div>True</div></td></tr><tr><td style="font-weight:bold;vertical-align:top;">local_hosts</td><td style="vertical-align:top;">:</td><td><div><table><tr><td><div>Asterio.Home</div></td></tr><tr><td><div>::ffff:127.0.0.1</div></td></tr><tr><td><div>::1</div></td></tr><tr><td><div>fe80::168:1404:7dfa:bb43%2</div></td></tr><tr><td><div>192.168.1.133</div></td></tr><tr><td><div>127.0.0.1</div></td></tr><tr><td><div>Asterio</div></td></tr></table></div></td></tr><tr><td style="font-weight:bold;vertical-align:top;">web2py_version</td><td style="vertical-align:top;">:</td><td><div>2.9.11-stable+timestamp.2014.09.15.23.35.11</div></td></tr></table></div></td></tr><tr><td style="font-weight:bold;vertical-align:top;">is_https</td><td style="vertical-align:top;">:</td><td><div>False</div></td></tr><tr><td style="font-weight:bold;vertical-align:top;">is_local</td><td style="vertical-align:top;">:</td><td><div>True</div></td></tr><tr><td style="font-weight:bold;vertical-align:top;">is_restful</td><td style="vertical-align:top;">:</td><td><div>False</div></td></tr><tr><td style="font-weight:bold;vertical-align:top;">is_sheduler</td><td style="vertical-align:top;">:</td><td><div>None</div></td></tr><tr><td style="font-weight:bold;vertical-align:top;">is_shell</td><td style="vertical-align:top;">:</td><td><div>None</div></td></tr><tr><td style="font-weight:bold;vertical-align:top;">now</td><td style="vertical-align:top;">:</td><td><div>datetime.datetime(2014, 10, 23, 20, 5, 49, 805000)</div></td></tr><tr><td style="font-weight:bold;vertical-align:top;">raw_args</td><td style="vertical-align:top;">:</td><td><div></div></td></tr><tr><td style="font-weight:bold;vertical-align:top;">raw_extension</td><td style="vertical-align:top;">:</td><td><div>None</div></td></tr><tr><td style="font-weight:bold;vertical-align:top;">url</td><td style="vertical-align:top;">:</td><td><div>/SCADA_con_arduino</div></td></tr><tr><td style="font-weight:bold;vertical-align:top;">utcnow</td><td style="vertical-align:top;">:</td><td><div>datetime.datetime(2014, 10, 23, 18, 5, 49, 805000)</div></td></tr><tr><td style="font-weight:bold;vertical-align:top;">uuid</td><td style="vertical-align:top;">:</td><td><div>SCADA_con_arduino/127.0.0.1.2014-10-23.20-05-49.2b6f969c-3a20-42a0-82f6-6ff2a78750fd</div></td></tr><tr><td style="font-weight:bold;vertical-align:top;">wsgi</td><td style="vertical-align:top;">:</td><td><div>&lt;gluon.main.LazyWSGI object at 0x0000000003B79AC8&gt;</div></td></tr></table></div>'
tRp70
sS'frames'
p71
(lp72
(dp73
S'file'
p74
S'C:\\Users\\Aster\\Desktop\\web2py\\gluon\\restricted.py'
p75
sS'dump'
p76
(dp77
S'code'
p78
S'\'response.write(\\\'\\\\n\\\', escape=False)\\nresponse.writ..."></script>\\\\n</body>\\\\n</html>\\\\n\\\\n\\\', escape=False)\''
p79
sS'layer'
p80
S"r'C:\\Users\\Aster\\Desktop\\web2py\\applications\\SCADA_con_arduino\\views\\default/index.html'"
p81
sS'global compile2'
p82
S'<function compile2>'
p83
sS'ccode'
p84
S'undefined'
p85
ssS'lnum'
p86
I223
sS'lines'
p87
(dp88
I224
S'        exec ccode in environment'
p89
sI225
S'    except HTTP:'
p90
sI226
S'        raise'
p91
sI227
S'    except RestrictedError:'
p92
sI218
S"    environment['__name__'] = '__restricted__'"
p93
sI219
S'    try:'
p94
sI220
S'        if isinstance(code, types.CodeType):'
p95
sI221
S'            ccode = code'
p96
sI222
S'        else:'
p97
sI223
S'            ccode = compile2(code, layer)'
p98
ssS'call'
p99
S'(code=\'response.write(\\\'\\\\n\\\', escape=False)\\nresponse.writ..."></script>\\\\n</body>\\\\n</html>\\\\n\\\\n\\\', escape=False)\', environment={\'A\': <class \'gluon.html.A\'>, \'ANY_OF\': <class \'gluon.validators.ANY_OF\'>, \'ASSIGNJS\': <function ASSIGNJS>, \'Auth\': <class \'gluon.tools.Auth\'>, \'B\': <class \'gluon.html.B\'>, \'BEAUTIFY\': <class \'gluon.html.BEAUTIFY\'>, \'BODY\': <class \'gluon.html.BODY\'>, \'BR\': <class \'gluon.html.BR\'>, \'BUTTON\': <class \'gluon.html.BUTTON\'>, \'CAT\': <class \'gluon.html.CAT\'>, ...}, layer=r\'C:\\Users\\Aster\\Desktop\\web2py\\applications\\SCADA_con_arduino\\views\\default/index.html\')'
p100
sS'func'
p101
S'restricted'
p102
sa(dp103
g74
S'C:\\Users\\Aster\\Desktop\\web2py\\gluon\\restricted.py'
p104
sg76
(dp105
S'builtincompile'
p106
S'<built-in function compile>'
p107
sS'code'
p108
S'\'response.write(\\\'\\\\n\\\', escape=False)\\nresponse.writ..."></script>\\\\n</body>\\\\n</html>\\\\n\\\\n\\\', escape=False)\''
p109
sS'code.rstrip'
p110
S'<built-in method rstrip of str object>'
p111
sS').replace'
p112
g85
sS'layer'
p113
S"r'C:\\Users\\Aster\\Desktop\\web2py\\applications\\SCADA_con_arduino\\views\\default/index.html'"
p114
ssg86
I206
sg87
(dp115
I201
S'def compile2(code, layer):'
p116
sI202
S'    """'
p117
sI203
S"    The ``+'\\\\n'`` is necessary else compile fails when code ends in a comment."
p118
sI204
S'    """'
p119
sI205
S''
sI206
S"    return compile(code.rstrip().replace('\\r\\n', '\\n') + '\\n', layer, 'exec')"
p120
sI207
S''
sI208
S''
sI209
S"def restricted(code, environment=None, layer='Unknown'):"
p121
sI210
S'    """'
p122
ssg99
S'(code=\'response.write(\\\'\\\\n\\\', escape=False)\\nresponse.writ..."></script>\\\\n</body>\\\\n</html>\\\\n\\\\n\\\', escape=False)\', layer=r\'C:\\Users\\Aster\\Desktop\\web2py\\applications\\SCADA_con_arduino\\views\\default/index.html\')'
p123
sg101
S'compile2'
p124
sasS'pyver'
p125
S'Python 2.7.5: C:\\Python27\\python.exe (prefix: C:\\Python27)'
p126
sS'session'
p127
g69
(S's\x1a\x00\x00\x00<div><table></table></div>'
tRp128
sS'etype'
p129
S"<type 'exceptions.SyntaxError'>"
p130
sS'date'
p131
S'Thu Oct 23 20:05:49 2014'
p132
sS'response'
p133
g69
(S's:\x1c\x00\x00<div><table><tr><td style="font-weight:bold;vertical-align:top;">body</td><td style="vertical-align:top;">:</td><td><div>&lt;cStringIO.StringO object at 0x0000000003B79ED8&gt;</div></td></tr><tr><td style="font-weight:bold;vertical-align:top;">cookies</td><td style="vertical-align:top;">:</td><td><div><table><tr><td style="font-weight:bold;vertical-align:top;">session_id_scada_con_arduino</td><td style="vertical-align:top;">:</td><td><div>127.0.0.1-68f54e5c-0317-49d1-a02d-3b1a42fdb512<table><tr><td style="font-weight:bold;vertical-align:top;">comment</td><td style="vertical-align:top;">:</td><td><div></div></td></tr><tr><td style="font-weight:bold;vertical-align:top;">domain</td><td style="vertical-align:top;">:</td><td><div></div></td></tr><tr><td style="font-weight:bold;vertical-align:top;">expires</td><td style="vertical-align:top;">:</td><td><div></div></td></tr><tr><td style="font-weight:bold;vertical-align:top;">httponly</td><td style="vertical-align:top;">:</td><td><div></div></td></tr><tr><td style="font-weight:bold;vertical-align:top;">max-age</td><td style="vertical-align:top;">:</td><td><div></div></td></tr><tr><td style="font-weight:bold;vertical-align:top;">path</td><td style="vertical-align:top;">:</td><td><div>/</div></td></tr><tr><td style="font-weight:bold;vertical-align:top;">secure</td><td style="vertical-align:top;">:</td><td><div></div></td></tr><tr><td style="font-weight:bold;vertical-align:top;">version</td><td style="vertical-align:top;">:</td><td><div></div></td></tr></table></div></td></tr></table></div></td></tr><tr><td style="font-weight:bold;vertical-align:top;">delimiters</td><td style="vertical-align:top;">:</td><td><div><table><tr><td><div>{{</div></td></tr><tr><td><div>}}</div></td></tr></table></div></td></tr><tr><td style="font-weight:bold;vertical-align:top;">files</td><td style="vertical-align:top;">:</td><td><div><table></table></div></td></tr><tr><td style="font-weight:bold;vertical-align:top;">flash</td><td style="vertical-align:top;">:</td><td><div>Bienvenido al SCADA de Asterio</div></td></tr><tr><td style="font-weight:bold;vertical-align:top;">form_label_separator</td><td style="vertical-align:top;">:</td><td><div>: </div></td></tr><tr><td style="font-weight:bold;vertical-align:top;">formstyle</td><td style="vertical-align:top;">:</td><td><div>table3cols</div></td></tr><tr><td style="font-weight:bold;vertical-align:top;">generic_patterns</td><td style="vertical-align:top;">:</td><td><div><table><tr><td><div>*</div></td></tr></table></div></td></tr><tr><td style="font-weight:bold;vertical-align:top;">google_analytics_id</td><td style="vertical-align:top;">:</td><td><div>None</div></td></tr><tr><td style="font-weight:bold;vertical-align:top;">headers</td><td style="vertical-align:top;">:</td><td><div><table><tr><td style="font-weight:bold;vertical-align:top;">X-Powered-By</td><td style="vertical-align:top;">:</td><td><div>web2py</div></td></tr></table></div></td></tr><tr><td style="font-weight:bold;vertical-align:top;">menu</td><td style="vertical-align:top;">:</td><td><div><table><tr><td><div><table><tr><td><div>Inicio</div></td></tr><tr><td><div>False</div></td></tr><tr><td><div>/SCADA_con_arduino/default/index</div></td></tr><tr><td><div><table></table></div></td></tr></table></div></td></tr></table></div></td></tr><tr><td style="font-weight:bold;vertical-align:top;">meta</td><td style="vertical-align:top;">:</td><td><div><table><tr><td style="font-weight:bold;vertical-align:top;">author</td><td style="vertical-align:top;">:</td><td><div>Your Name &lt;you@example.com&gt;</div></td></tr><tr><td style="font-weight:bold;vertical-align:top;">description</td><td style="vertical-align:top;">:</td><td><div>a cool new app</div></td></tr><tr><td style="font-weight:bold;vertical-align:top;">generator</td><td style="vertical-align:top;">:</td><td><div>Web2py Web Framework</div></td></tr><tr><td style="font-weight:bold;vertical-align:top;">keywords</td><td style="vertical-align:top;">:</td><td><div>web2py, python, framework</div></td></tr></table></div></td></tr><tr><td style="font-weight:bold;vertical-align:top;">models_to_run</td><td style="vertical-align:top;">:</td><td><div><table><tr><td><div>^\\w+\\.py$</div></td></tr><tr><td><div>^default/\\w+\\.py$</div></td></tr><tr><td><div>^default/index/\\w+\\.py$</div></td></tr></table></div></td></tr><tr><td style="font-weight:bold;vertical-align:top;">postprocessing</td><td style="vertical-align:top;">:</td><td><div><table></table></div></td></tr><tr><td style="font-weight:bold;vertical-align:top;">session_client</td><td style="vertical-align:top;">:</td><td><div>127.0.0.1</div></td></tr><tr><td style="font-weight:bold;vertical-align:top;">session_cookie_compression_level</td><td style="vertical-align:top;">:</td><td><div>None</div></td></tr><tr><td style="font-weight:bold;vertical-align:top;">session_cookie_expires</td><td style="vertical-align:top;">:</td><td><div>None</div></td></tr><tr><td style="font-weight:bold;vertical-align:top;">session_cookie_key</td><td style="vertical-align:top;">:</td><td><div>None</div></td></tr><tr><td style="font-weight:bold;vertical-align:top;">session_data_name</td><td style="vertical-align:top;">:</td><td><div>session_data_scada_con_arduino</div></td></tr><tr><td style="font-weight:bold;vertical-align:top;">session_file</td><td style="vertical-align:top;">:</td><td><div>&lt;open file &#x27;C:\\\\Users\\\\Aster\\\\Desktop\\\\web2py\\\\applications\\\\SCADA_con_arduino\\\\sessions\\\\08b\\\\0ed\\\\127.0.0.1-68f54e5c-0317-49d1-a02d-3b1a42fdb512&#x27;, mode &#x27;rb+&#x27; at 0x0000000003B704B0&gt;</div></td></tr><tr><td style="font-weight:bold;vertical-align:top;">session_filename</td><td style="vertical-align:top;">:</td><td><div>C:\\Users\\Aster\\Desktop\\web2py\\applications\\SCADA_con_arduino\\sessions\\127.0.0.1-68f54e5c-0317-49d1-a02d-3b1a42fdb512</div></td></tr><tr><td style="font-weight:bold;vertical-align:top;">session_hash</td><td style="vertical-align:top;">:</td><td><div>7ad70d999990f281dfae93eb88b07a94</div></td></tr><tr><td style="font-weight:bold;vertical-align:top;">session_id</td><td style="vertical-align:top;">:</td><td><div>127.0.0.1-68f54e5c-0317-49d1-a02d-3b1a42fdb512</div></td></tr><tr><td style="font-weight:bold;vertical-align:top;">session_id_name</td><td style="vertical-align:top;">:</td><td><div>session_id_scada_con_arduino</div></td></tr><tr><td style="font-weight:bold;vertical-align:top;">session_locked</td><td style="vertical-align:top;">:</td><td><div>True</div></td></tr><tr><td style="font-weight:bold;vertical-align:top;">session_masterapp</td><td style="vertical-align:top;">:</td><td><div>SCADA_con_arduino</div></td></tr><tr><td style="font-weight:bold;vertical-align:top;">session_new</td><td style="vertical-align:top;">:</td><td><div>False</div></td></tr><tr><td style="font-weight:bold;vertical-align:top;">session_storage_type</td><td style="vertical-align:top;">:</td><td><div>file</div></td></tr><tr><td style="font-weight:bold;vertical-align:top;">status</td><td style="vertical-align:top;">:</td><td><div>200</div></td></tr><tr><td style="font-weight:bold;vertical-align:top;">view</td><td style="vertical-align:top;">:</td><td><div>default/index.html</div></td></tr></table></div>'
tRp134
sS'locals'
p135
(dp136
g4
S"r'C:\\Users\\Aster\\Desktop\\web2py\\applications\\SCADA_con_arduino\\views\\default/index.html'"
p137
sg6
S'\'response.write(\\\'\\\\n\\\', escape=False)\\nresponse.writ..."></script>\\\\n</body>\\\\n</html>\\\\n\\\\n\\\', escape=False)\''
p138
sssS'traceback'
p139
S'Traceback (most recent call last):\n  File "C:\\Users\\Aster\\Desktop\\web2py\\gluon\\restricted.py", line 223, in restricted\n    ccode = compile2(code, layer)\n  File "C:\\Users\\Aster\\Desktop\\web2py\\gluon\\restricted.py", line 206, in compile2\n    return compile(code.rstrip().replace(\'\\r\\n\', \'\\n\') + \'\\n\', layer, \'exec\')\n  File "C:\\Users\\Aster\\Desktop\\web2py\\applications\\SCADA_con_arduino\\views\\default/index.html", line 100\n    response.write(URL(\'default\',\'recibe_datos3\'.json\'))\n                                                       ^\nSyntaxError: EOL while scanning string literal\n'
p140
s.